
4e25890d-d0c0-41e4-9f44-7aba477939d9.elf：     文件格式 elf32-littlearm
4e25890d-d0c0-41e4-9f44-7aba477939d9.elf
体系结构：arm， 标志 0x00000150：
HAS_SYMS, DYNAMIC, D_PAGED
起始地址 0x00000020

程序头：
0x70000001 off    0x000214a8 vaddr 0x000114a8 paddr 0x000114a8 align 2**2
         filesz 0x00000a38 memsz 0x00000a38 flags r--
    LOAD off    0x00010000 vaddr 0x00000000 paddr 0x00000000 align 2**16
         filesz 0x0000eb6c memsz 0x0000eb6c flags r-x
    LOAD off    0x0001eb6c vaddr 0x0000eb6c paddr 0x0000eb6c align 2**16
         filesz 0x000036c8 memsz 0x000036c8 flags r--
    LOAD off    0x00023000 vaddr 0x00013000 paddr 0x00013000 align 2**16
         filesz 0x0000009c memsz 0x0000ac30 flags rw-
 DYNAMIC off    0x00022020 vaddr 0x00012020 paddr 0x00012020 align 2**2
         filesz 0x00000080 memsz 0x00000080 flags rw-

动态节：
  HASH                 0x000121f0
  STRTAB               0x00012160
  SYMTAB               0x000120a0
  STRSZ                0x0000008e
  SYMENT               0x00000010
  DEBUG                0x00000000
  REL                  0x00011f10
  RELSZ                0x00000110
  RELENT               0x00000008
  FLAGS_1              0x08000000
  RELCOUNT             0x00000019
私有标志 = 5000400： [Version5 EABI] [hard-float ABI]

节：
Idx Name          Size      VMA       LMA       File off  Algn
  0 .ta_head      00000020  00000000  00000000  00010000  2**3
                  CONTENTS, ALLOC, LOAD, DATA
  1 .text         0000eb4c  00000020  00000020  00010020  2**2
                  CONTENTS, ALLOC, LOAD, READONLY, CODE
  2 .rodata       00001b58  0000eb6c  0000eb6c  0001eb6c  2**2
                  CONTENTS, ALLOC, LOAD, READONLY, DATA
  3 .ARM.extab    00000dcc  000106c4  000106c4  000206c4  2**2
                  CONTENTS, ALLOC, LOAD, READONLY, DATA
  4 .ARM.extab.text.__aeabi_ldivmod 0000000c  00011490  00011490  00021490  2**2
                  CONTENTS, ALLOC, LOAD, READONLY, DATA
  5 .ARM.extab.text.__aeabi_uldivmod 0000000c  0001149c  0001149c  0002149c  2**2
                  CONTENTS, ALLOC, LOAD, READONLY, DATA
  6 .ARM.exidx    00000a38  000114a8  000114a8  000214a8  2**2
                  CONTENTS, ALLOC, LOAD, READONLY, DATA
  7 .got          00000030  00011ee0  00011ee0  00021ee0  2**2
                  CONTENTS, ALLOC, LOAD, DATA
  8 .dynsym       000000c0  000120a0  000120a0  000220a0  2**2
                  CONTENTS, ALLOC, LOAD, READONLY, DATA
  9 .rel.got      00000048  00011fd8  00011fd8  00021fd8  2**2
                  CONTENTS, ALLOC, LOAD, READONLY, DATA
 10 .dynamic      00000080  00012020  00012020  00022020  2**2
                  CONTENTS, ALLOC, LOAD, DATA
 11 .dynstr       0000008e  00012160  00012160  00022160  2**0
                  CONTENTS, ALLOC, LOAD, READONLY, DATA
 12 .hash         00000044  000121f0  000121f0  000221f0  2**2
                  CONTENTS, ALLOC, LOAD, READONLY, DATA
 13 .data         0000009c  00013000  00013000  00023000  2**2
                  CONTENTS, ALLOC, LOAD, DATA
 14 .bss          0000ab94  0001309c  0001309c  0002309c  2**2
                  ALLOC
 15 .debug_info   0000c3fe  00000000  00000000  0002309c  2**0
                  CONTENTS, READONLY, DEBUGGING
 16 .debug_abbrev 00003432  00000000  00000000  0002f49a  2**0
                  CONTENTS, READONLY, DEBUGGING
 17 .debug_aranges 00000588  00000000  00000000  000328d0  2**3
                  CONTENTS, READONLY, DEBUGGING
 18 .debug_macro  00005d60  00000000  00000000  00032e58  2**0
                  CONTENTS, READONLY, DEBUGGING
 19 .debug_line   00007269  00000000  00000000  00038bb8  2**0
                  CONTENTS, READONLY, DEBUGGING
 20 .debug_str    00011482  00000000  00000000  0003fe21  2**0
                  CONTENTS, READONLY, DEBUGGING
 21 .comment      0000002d  00000000  00000000  000512a3  2**0
                  CONTENTS, READONLY
 22 .ARM.attributes 00000038  00000000  00000000  000512d0  2**0
                  CONTENTS, READONLY
 23 .debug_frame  0000346c  00000000  00000000  00051308  2**2
                  CONTENTS, READONLY, DEBUGGING
 24 .rel.dyn      000000c8  00011f10  00011f10  00021f10  2**2
                  CONTENTS, ALLOC, LOAD, READONLY, DATA
 25 .debug_ranges 00000038  00000000  00000000  00054778  2**3
                  CONTENTS, READONLY, DEBUGGING
SYMBOL TABLE:
00000000 l    d  .ta_head	00000000 .ta_head
00000020 l    d  .text	00000000 .text
0000eb6c l    d  .rodata	00000000 .rodata
000106c4 l    d  .ARM.extab	00000000 .ARM.extab
00011490 l    d  .ARM.extab.text.__aeabi_ldivmod	00000000 .ARM.extab.text.__aeabi_ldivmod
0001149c l    d  .ARM.extab.text.__aeabi_uldivmod	00000000 .ARM.extab.text.__aeabi_uldivmod
000114a8 l    d  .ARM.exidx	00000000 .ARM.exidx
00011ee0 l    d  .got	00000000 .got
00011fd8 l    d  .rel.got	00000000 .rel.got
00012020 l    d  .dynamic	00000000 .dynamic
000120a0 l    d  .dynsym	00000000 .dynsym
00012160 l    d  .dynstr	00000000 .dynstr
000121f0 l    d  .hash	00000000 .hash
00013000 l    d  .data	00000000 .data
0001309c l    d  .bss	00000000 .bss
00000000 l    d  .debug_info	00000000 .debug_info
00000000 l    d  .debug_abbrev	00000000 .debug_abbrev
00000000 l    d  .debug_aranges	00000000 .debug_aranges
00000000 l    d  .debug_macro	00000000 .debug_macro
00000000 l    d  .debug_line	00000000 .debug_line
00000000 l    d  .debug_str	00000000 .debug_str
00000000 l    d  .comment	00000000 .comment
00000000 l    d  .ARM.attributes	00000000 .ARM.attributes
00000000 l    d  .debug_frame	00000000 .debug_frame
00011f10 l    d  .rel.dyn	00000000 .rel.dyn
00000000 l    d  .debug_ranges	00000000 .debug_ranges
00000000 l    df *ABS*	00000000 user_ta_header.c
0000f018 l     O .rodata	00000001 __compound_literal.0
0000f019 l     O .rodata	00000001 __compound_literal.1
0000f01a l     O .rodata	00000001 __compound_literal.2
0000f01c l     O .rodata	00000004 __compound_literal.3
0000f020 l     O .rodata	00000004 __compound_literal.4
0000f024 l     O .rodata	00000004 __compound_literal.5
00000000 l    df *ABS*	00000000 TEEencrypt_ta.c
0000ef4c l     O .rodata	00000014 __func__.6062
0000ef60 l     O .rodata	00000015 __func__.6066
0000ef78 l     O .rodata	00000019 __func__.6074
0000ef94 l     O .rodata	0000001a __func__.6078
0000efb0 l     O .rodata	00000016 __func__.6087
0000efc8 l     O .rodata	00000014 __func__.6098
0000efdc l     O .rodata	0000000c __func__.6111
0000efe8 l     O .rodata	0000000c __func__.6125
000006a8 l     F .text	000002bc enc_value
0000eff4 l     O .rodata	0000000a __func__.6135
00000964 l     F .text	00000260 dec_value
0000f000 l     O .rodata	0000000a __func__.6147
00000000 l    df *ABS*	00000000 tee_api.c
0000f160 l     O .rodata	00000004 DEFAULT_TEE_MALLOC_HINT
0001b0a0 l     O .bss	00000004 tee_api_instance_data
00000000 l    df *ABS*	00000000 tee_api_operations.c
0000243c l     F .text	00000048 init_hash_operation
00002638 l     F .text	00000310 tee_buffer_update
00000000 l    df *ABS*	00000000 user_ta_entry.c
00003ebc l     F .text	00000010 __utee_gprof_init
00003ecc l     F .text	00000010 __utee_gprof_fini
00013074 l     O .data	00000008 ta_sessions
0001b0c8 l     O .bss	00000004 ta_ref_count
0001b0cc l     O .bss	00000001 context_init
00003edc l     F .text	00000058 ta_header_save_params
00003f34 l     F .text	00000044 ta_header_get_session
00003f78 l     F .text	00000128 ta_header_add_session
000040a0 l     F .text	0000009c ta_header_remove_session
0000413c l     F .text	0000008e entry_open_session
000041ca l     F .text	00000040 entry_close_session
0000420a l     F .text	00000070 entry_invoke_command
00000000 l    df *ABS*	00000000 utee_syscalls_a32.o
00000000 l    df *ABS*	00000000 gprof_a32.o
00000000 l    df *ABS*	00000000 tee_user_mem.c
0000f164 l     O .rodata	00000004 DEFAULT_TEE_MALLOC_HINT
0001307c l     O .data	00000004 ARTIST
0000f168 l     O .rodata	00000004 CANARY_LINE_SIZE
000048d0 l     F .text	0000001e buf_addr
000048ee l     F .text	00000028 buf_size
00004916 l     F .text	0000001e elem_addr
00004934 l     F .text	00000048 is_buffer_valid
0000497c l     F .text	00000068 print_buf
0001b0d0 l     O .bss	00000004 heap_level
0001b0d4 l     O .bss	00000008 global_stats
000049e4 l     F .text	00000060 heap_inc
00004a44 l     F .text	00000064 heap_dec
00004aa8 l     F .text	00000064 check_elem_end
0000f268 l     O .rodata	0000000f __func__.6246
00004b0c l     F .text	000000dc check_elem
0000f278 l     O .rodata	0000000b __func__.6251
00004be8 l     F .text	00000060 is_mem_coherent
0000f284 l     O .rodata	00000010 __func__.6256
0000f294 l     O .rodata	00000013 __func__.6271
0000f2a8 l     O .rodata	00000012 __func__.6288
0000f2bc l     O .rodata	00000018 __func__.6296
00004fe0 l     F .text	00000068 tee_user_mem_status
0000f2d4 l     O .rodata	00000014 __func__.6301
00000000 l    df *ABS*	00000000 assert.c
00000000 l    df *ABS*	00000000 tee_api_arith.c
0001b0dc l     O .bss	00001b00 mempool_u32
00013088 l     O .data	00000004 mempool
000050e0 l     F .text	00000028 TEE_BigInt_Panic
00000000 l    df *ABS*	00000000 trace_ext.c
00000000 l    df *ABS*	00000000 bget_malloc.c
00005bd4 l     F .text	00000014 malloc_lock
00005be8 l     F .text	00000018 malloc_unlock
00005c00 l     F .text	0000001a tag_asan_free
00005c1a l     F .text	0000001a tag_asan_alloced
00005c34 l     F .text	00000024 memset_unchecked
0001308c l     O .data	00000010 freelist
0001cbdc l     O .bss	00000004 totalloc
0001cbe0 l     O .bss	00000004 numget
0001cbe4 l     O .bss	00000004 numrel
0000f778 l     O .rodata	00000005 __func__.5667
0000f780 l     O .rodata	00000006 __func__.5681
0000f788 l     O .rodata	00000006 __func__.5689
0000f790 l     O .rodata	00000005 __func__.5696
0000f798 l     O .rodata	00000006 __func__.5704
0000f7a0 l     O .rodata	00000007 __func__.5713
0001cbe8 l     O .bss	00000004 malloc_pool
0001cbec l     O .bss	00000004 malloc_pool_len
0001cbf0 l     O .bss	00000038 mstats
00006530 l     F .text	0000009c raw_malloc_return_hook
00006670 l     F .text	00000010 raw_malloc_validate_pools
00006680 l     F .text	00000030 bpool_foreach_iterator_init
000066b0 l     F .text	000000d8 bpool_foreach_pool
0000f7a8 l     O .rodata	00000013 __func__.5752
00006788 l     F .text	00000080 bpool_foreach
00006808 l     F .text	0000005e raw_malloc
00006866 l     F .text	00000024 raw_free
0000688a l     F .text	00000070 raw_calloc
000068fa l     F .text	00000060 raw_realloc
0000695a l     F .text	0000015e create_free_block
0000f7bc l     O .rodata	00000012 __func__.5799
00006ab8 l     F .text	0000015c brel_before
0000f7d0 l     O .rodata	0000000c __func__.5808
00006c14 l     F .text	00000220 brel_after
0000f7dc l     O .rodata	0000000b __func__.5818
00006e34 l     F .text	00000148 raw_memalign
0000f7e8 l     O .rodata	0000000d __func__.5832
00006f7c l     F .text	0000005c bget_buf_size
0000f7f8 l     O .rodata	0000000e __func__.5838
00007066 l     F .text	00000028 realloc_unlocked
000070f2 l     F .text	00000026 get_payload_start_size
0000f808 l     O .rodata	00000010 __func__.5884
00000000 l    df *ABS*	00000000 snprintk.c
0000f818 l     O .rodata	00000011 hexdigits
0000f82c l     O .rodata	00000011 HEXDIGITS
00007574 l     F .text	00000df4 kprintf
000074d6 l     F .text	0000009e uuid2str
00000000 l    df *ABS*	00000000 trace.c
000083d4 l     F .text	0000005c trace_level_to_string
0000f8c0 l     O .rodata	0000002d lvl_strs.5538
00000000 l    df *ABS*	00000000 arm32_aeabi_ldivmod_a32.o
00000000 l    df *ABS*	00000000 mpa_misc.c
00000000 l    df *ABS*	00000000 mpa_montgomery.c
00000000 l    df *ABS*	00000000 mpa_primetest.c
00010558 l     O .rodata	000000b8 const_small_prime_factors
00010610 l     O .rodata	00000010 const_miller_rabin_proof_limit
00010620 l     O .rodata	0000000c const_two
00008f3c l     F .text	0000009a is_small_prime
00008fd6 l     F .text	00000062 has_small_factors
00009038 l     F .text	000002c4 primality_test_miller_rabin
00008f02 l     F .text	0000003a check_table
0001062c l     O .rodata	0000001c proof_a.5919
00000000 l    df *ABS*	00000000 mpa_random.c
0001cc28 l     O .bss	00000004 get_rng_array
00009324 l     F .text	00000034 get_random_byte
00000000 l    df *ABS*	00000000 mpa_expmod.c
00000000 l    df *ABS*	00000000 mpa_io.c
00009690 l     F .text	00000042 __mpa_isspace
000096d2 l     F .text	00000084 __mpa_is_char_in_base
00009756 l     F .text	00000058 __mpa_digit_value
000097ae l     F .text	00000022 __mpa_digitstr_to_binary_wsize_base_16
000097d0 l     F .text	00000050 __mpa_nibble_to_char
00009820 l     F .text	00000066 __mpa_word_to_hexstr
00009886 l     F .text	00000128 __mpa_mpanum_to_hexstr
000099ae l     F .text	00000050 __mpa_count_leading_zero_bits
000099fe l     F .text	00000064 __mpa_size_in_base_255
000106ac l     O .rodata	0000000c __func__.5993
0001cc2c l     O .bss	00001002 buf.5979
000106b8 l     O .rodata	0000000c __func__.6007
00009e38 l     F .text	00000064 set_word
00009f88 l     F .text	00000044 get_word
00000000 l    df *ABS*	00000000 tee_api_objects.c
00000000 l    df *ABS*	00000000 tee_api_panic.c
00000000 l    df *ABS*	00000000 utee_misc.c
00000000 l    df *ABS*	00000000 snprintf.c
00000000 l    df *ABS*	00000000 memcmp.c
00000000 l    df *ABS*	00000000 memcpy.c
00000000 l    df *ABS*	00000000 memmove.c
00000000 l    df *ABS*	00000000 memset.c
00000000 l    df *ABS*	00000000 strlen.c
00000000 l    df *ABS*	00000000 buf_compare_ct.c
00000000 l    df *ABS*	00000000 aeabi_unwind.c
00000000 l    df *ABS*	00000000 memchr.c
00000000 l    df *ABS*	00000000 arm32_aeabi_ldivmod.c
0000b8e4 l     F .text	000000ee division_lqr
0000b9d2 l     F .text	0000006a ul_div_qr
00000000 l    df *ABS*	00000000 mpa_conv.c
00000000 l    df *ABS*	00000000 mpa_div.c
0000bcda l     F .text	000000d8 __mpa_soft_div
0000be0a l     F .text	0000061a __mpa_div_q_r_internal
00000000 l    df *ABS*	00000000 mpa_gcd.c
0000c776 l     F .text	000000f4 __mpa_divby2
0000c86a l     F .text	000002c8 __mpa_egcd
0000cb32 l     F .text	0000015a __mpa_gcd
00000000 l    df *ABS*	00000000 mpa_mem_static.c
00000000 l    df *ABS*	00000000 mpa_mul.c
00000000 l    df *ABS*	00000000 mpa_shift.c
00000000 l    df *ABS*	00000000 mpa_addsub.c
00000000 l    df *ABS*	00000000 mpa_cmp.c
00000000 l    df *ABS*	00000000 mpa_init.c
00000000 l    df *ABS*	00000000 mpa_modulus.c
00000000 l    df *ABS*	00000000 
00012020 l     O *ABS*	00000000 _DYNAMIC
00011ee0 l     O *ABS*	00000000 _GLOBAL_OFFSET_TABLE_
00004884 g     F .text	00000018 utee_se_channel_transmit
00005b9c g     F .text	00000038 putchar
0000e880 g     F .text	0000004c mpa_init_static
0000a692 g     F .text	0000012e TEE_PopulateTransientObject
000087e8 g     F .text	00000048 mpa_copy
0000599c g     F .text	0000004c TEE_BigIntConvertToFMM
000057fc g     F .text	00000024 TEE_BigIntSquareMod
000053dc g     F .text	0000002a TEE_BigIntShiftRight
0000bbe0 g     F .text	00000096 mpa_get_S32
00008862 g     F .text	00000080 mpa_highest_bit_index
00004674 g     F .text	00000018 utee_storage_obj_create
00000390 g     F .text	0000018c RSA_encrypt
0000baae g     F .text	000000e6 __l_divmod
00004848 g     F .text	00000014 utee_se_session_close
000042f4 g     F .text	00000014 utee_return
00002484 g     F .text	0000005c TEE_DigestUpdate
000047a4 g     F .text	00000014 utee_se_service_get_readers
000012f8 g     F .text	00000020 TEE_Realloc
0000c424 g     F .text	00000132 __mpa_div_q_r_internal_word
00004d90 g     F .text	000000ac tee_user_mem_realloc
000020e4 g     F .text	00000230 TEE_SetOperationKey2
0000e13c g     F .text	00000202 mpa_sub
00005afc g     F .text	00000068 printf
00004e3c g     F .text	00000110 tee_user_mem_free
00004308 g     F .text	00000014 utee_log
0000f91c g     O .rodata	00000004 NR_STORED_PRIMES
0000a7c0 g     F .text	0000004c TEE_InitRefAttribute
00000f5e g     F .text	00000090 TEE_InvokeTACommand
0000894c g     F .text	00000032 mpa_can_hold
0000d2b8 g     F .text	000000ae __mpa_abs_mul_word
000032fc g     F .text	000001fc TEE_AEEncryptFinal
00008e60 g     F .text	0000004c mpa_montgomery_mul
00007436 g     F .text	0000002e vsnprintk
0000897e g     F .text	0000002a mpa_parity
0000b428 g     F .text	0000013e memmove
0000dc18 g     F .text	00000064 __mpa_full_adder_ackum
0000b214 g     F .text	0000003c snprintf
000053b8 g     F .text	00000024 TEE_BigIntCmpS32
0000a80c g     F .text	0000004c TEE_InitValueAttribute
0000b7a0 g     F .text	00000010 __aeabi_unwind_cpp_pr0
00005458 g     F .text	00000038 TEE_BigIntAdd
00004348 g     F .text	00000014 utee_get_property_name_to_index
0000f014 g     O .rodata	00000004 ta_heap_size
0000f918 g     O .rodata	00000004 MAX_TABULATED_PRIME
0000a632 g     F .text	00000060 TEE_ResetTransientObject
0000b17e g     F .text	0000001c utee_malloc
0000442c g     F .text	00000018 utee_cryp_state_alloc
000045fc g     F .text	00000018 utee_authenc_enc_final
0000d230 g     F .text	00000088 __mpa_mul_add_word_cum
000025a0 g     F .text	00000098 TEE_CipherInit
000054c8 g     F .text	00000026 TEE_BigIntNeg
0000c6a0 g     F .text	000000d6 mpa_div
00000020 g       .text	00000000 __text_start
0000adde g     F .text	0000005a TEE_StartPersistentObjectEnumerator
0000f90c g     O .rodata	0000000c const_one
0000733e g     F .text	000000c2 malloc_buffer_overlaps_heap
0000e728 g     F .text	00000026 __mpa_abs_less_than
000056bc g     F .text	00000084 TEE_BigIntSubMod
00003018 g     F .text	000000e6 TEE_AEInit
00009358 g     F .text	0000013c mpa_get_random
0000b1f4 g     F .text	00000020 get_rng_array
00008430 g     F .text	000002ec trace_printf
0000477c g     F .text	00000014 utee_se_service_open
0000b336 g     F .text	000000f2 memcpy
00004458 g     F .text	00000014 utee_cryp_state_free
000087b4 g     F .text	00000034 mpa_wipe
000059e8 g     F .text	00000090 TEE_BigIntConvertFromFMM
0000b150 g     F .text	0000001a TEE_Panic
00004870 g     F .text	00000014 utee_se_channel_get_select_resp
00008754 g     F .text	00000018 __aeabi_uldivmod
00002314 g     F .text	00000128 TEE_CopyOperation
00005b64 g     F .text	00000038 puts
00005a78 g     F .text	0000004c TEE_BigIntComputeFMM
0000bc76 g     F .text	00000032 mpa_set_word
0000662c g     F .text	00000044 malloc_get_stats
0000d746 g     F .text	00000228 mpa_shift_left
000044d8 g     F .text	00000018 utee_cipher_final
0000d472 g     F .text	000000c4 mpa_mul
000012ac g     F .text	0000002c TEE_GetREETime
0000ad1a g     F .text	00000060 TEE_AllocatePersistentObjectEnumerator
00013004 g     O .data	0000006c ta_props
000036dc g     F .text	00000196 TEE_AsymmetricEncrypt
00006fd8 g     F .text	00000032 malloc
00004540 g     F .text	00000014 utee_cryp_obj_close
000047e0 g     F .text	00000014 utee_se_reader_open_session
0000b250 g     F .text	0000002e vsnprintf
0000a95c g     F .text	000000f0 TEE_GenerateKey
00013000 g     O .data	00000004 trace_level
0000b16a g     F .text	00000014 utee_get_ta_exec_id
00005390 g     F .text	00000028 TEE_BigIntCmp
0000b19a g     F .text	00000020 utee_realloc
0000f15c g     O .rodata	00000004 ta_num_props
00005f54 g     F .text	00000094 bgetr
000045e4 g     F .text	00000018 utee_authenc_update_payload
00002948 g     F .text	000001bc TEE_CipherUpdate
000052ae g     F .text	0000006a TEE_BigIntConvertToOctetString
00001d80 g     F .text	000001a0 TEE_GetOperationInfoMultiple
000048b0 g     F .text	00000014 utee_cache_operation
000045b8 g     F .text	00000018 utee_authenc_init
00005406 g     F .text	0000002e TEE_BigIntGetBit
0000f00c g     O .rodata	00000008 trace_ext_prefix
0000dc7c g     F .text	00000114 __mpa_abs_add
00005ec0 g     F .text	00000094 bgetz
000010f4 g     F .text	0000001c TEE_GetInstanceData
000011aa g     F .text	00000038 TEE_Wait
0000472c g     F .text	00000014 utee_storage_obj_write
0000d126 g     F .text	00000090 mpa_free_static_temp_var
00008eac g     F .text	00000056 mpa_is_prob_prime
0000b7c0 g     F .text	00000010 __aeabi_unwind_cpp_pr2
0000489c g     F .text	00000014 utee_se_channel_close
0000d536 g     F .text	000000aa mpa_mul_word
00001356 g     F .text	00000024 TEE_CacheFlush
00000054 g     F .text	00000030 TA_DestroyEntryPoint
00005084 g     F .text	00000048 _assert_log
0000521a g     F .text	0000002e TEE_BigIntFMMContextSizeInU32
00002f3e g     F .text	000000da TEE_MACCompareFinal
0000ac86 g     F .text	00000094 TEE_RenamePersistentObject
000024e0 g     F .text	000000c0 TEE_DigestDoFinal
0000c556 g     F .text	0000014a __mpa_div_q_r
00005108 g     F .text	00000044 _TEE_MathAPI_Init
00004704 g     F .text	00000014 utee_storage_next_enum
000130a0 g     O .bss	00008000 ta_heap
00005820 g     F .text	00000068 TEE_BigIntInvMod
00000138 g     F .text	00000038 TA_CloseSessionEntryPoint
00003872 g     F .text	00000196 TEE_AsymmetricDecrypt
0000aa4c g     F .text	000000c6 TEE_OpenPersistentObject
0000431c g     F .text	00000014 __utee_panic
00004444 g     F .text	00000014 utee_cryp_state_copy
00000bc4 g     F .text	000000a4 TA_InvokeCommandEntryPoint
00009e9c g     F .text	000000ec mpa_set_oct_str
00004830 g     F .text	00000018 utee_se_session_open_channel
0000d5e0 g     F .text	000000b2 __mpa_shift_words_left
0000452c g     F .text	00000014 utee_cryp_obj_alloc
00004418 g     F .text	00000014 utee_set_ta_time
00004518 g     F .text	00000014 utee_cryp_obj_get_attr
0000a858 g     F .text	0000004c TEE_CopyObjectAttributes
00008af4 g     F .text	0000011a __mpa_montgomery_sub_ack
00007030 g     F .text	00000036 calloc
000012d8 g     F .text	00000020 TEE_Malloc
000043dc g     F .text	00000014 utee_mask_cancellation
00004554 g     F .text	00000014 utee_cryp_obj_reset
0000108a g     F .text	00000042 TEE_CheckMemoryAccessRights
0001dc30 g       .bss	00000000 __gprof_buf_end
0000ba3c g     F .text	00000072 __ul_divmod
0000e33e g     F .text	0000002a mpa_neg
0000f920 g     O .rodata	00000c38 PRIME_TABLE
0000aef2 g     F .text	00000088 TEE_ReadObjectData
0000a3a0 g     F .text	000000c2 TEE_GetObjectBufferAttribute
00000084 g     F .text	000000b4 TA_OpenSessionEntryPoint
0000cc8c g     F .text	000000ec mpa_gcd
00008830 g     F .text	00000032 mpa_abs
000046f0 g     F .text	00000014 utee_storage_start_enum
00001ce0 g     F .text	0000004a TEE_FreeOperation
00009a76 g     F .text	00000332 mpa_set_str
000046a0 g     F .text	00000014 utee_storage_obj_rename
0001b0a4 g     O .bss	00000004 ta_param_types
0000a0f8 g     F .text	00000156 __utee_from_attr
00005950 g     F .text	0000004c TEE_BigIntIsProbablePrime
0000d100 g     F .text	00000026 mpa_alloc_static_temp_var
0000ac3c g     F .text	0000004a TEE_CloseAndDeletePersistentObject1
000092fc g     F .text	00000028 mpa_set_random_generator
00004330 g     F .text	00000018 utee_get_property
000034f8 g     F .text	000001e4 TEE_AEDecryptFinal
0000514c g     F .text	0000001e TEE_BigIntInit
00001110 g     F .text	00000024 TEE_MemMove
00005248 g     F .text	00000066 TEE_BigIntConvertFromOctetString
00013070 g     O .data	00000004 _ref__utee_mcount
00002d54 g     F .text	00000072 TEE_MACInit
00003a08 g     F .text	00000180 TEE_AsymmetricSignDigest
0000b7d0 g     F .text	00000114 memchr
00001022 g     F .text	00000034 TEE_UnmaskCancellation
0000a24e g     F .text	0000006e TEE_GetObjectInfo
0000ea34 g     F .text	00000050 mpa_mul_mod
0000468c g     F .text	00000014 utee_storage_obj_del
00003178 g     F .text	00000184 TEE_AEUpdate
00004754 g     F .text	00000014 utee_storage_obj_seek
0000a5d2 g     F .text	00000060 TEE_FreeTransientObject
00008d3e g     F .text	00000122 mpa_compute_fmm_context
00004480 g     F .text	00000014 utee_hash_update
0000cf52 g     F .text	00000048 mpa_init_scratch_mem_sync
000048c4  w    F .text	0000000c __utee_mcount
00001d2a g     F .text	00000056 TEE_GetOperationInfo
000055bc g     F .text	0000007c TEE_BigIntMod
0000485c g     F .text	00000014 utee_se_channel_select_next
00004374 g     F .text	00000014 utee_close_ta_session
0000555c g     F .text	00000060 TEE_BigIntDiv
000065cc g     F .text	00000060 malloc_reset_stats
000044c0 g     F .text	00000018 utee_cipher_update
0000a354 g     F .text	0000004c TEE_RestrictObjectUsage1
0000481c g     F .text	00000014 utee_se_session_get_atr
0000708e g     F .text	0000002e realloc
0000dd90 g     F .text	000000e6 __mpa_abs_add_ackum
00004644 g     F .text	00000018 utee_asymm_verify
000054ee g     F .text	0000003a TEE_BigIntMul
00001f20 g     F .text	00000080 TEE_ResetOperation
0000bca8 g     F .text	00000032 mpa_get_word
00001158 g     F .text	00000026 TEE_MemFill
0000b27e g     F .text	000000b8 memcmp
00007118 g     F .text	00000188 malloc_add_pool
00002dc6 g     F .text	00000082 TEE_MACUpdate
000083b0 g     F .text	00000024 trace_get_level
000045a4 g     F .text	00000014 utee_cryp_random_number_generate
0000a308 g     F .text	0000004c TEE_RestrictObjectUsage
000051f4 g     F .text	00000026 TEE_BigIntFMMSizeInU32
0000516a g     F .text	00000040 TEE_BigIntInitFMM
0000462c g     F .text	00000018 utee_asymm_operate
0000a540 g     F .text	00000032 TEE_CloseObject
0000427a g     F .text	00000066 __utee_entry
0000eb6c g       .text	00000000 __text_end
00005888 g     F .text	0000007c TEE_BigIntRelativePrime
00009494 g     F .text	0000006c mpa_get_random_digits
00006348 g     F .text	00000124 bpool
0000bb94 g     F .text	0000004c mpa_set_S32
0000e8cc g     F .text	0000009c mpa_init_static_fmm_context
00000fee g     F .text	00000034 TEE_GetCancellationFlag
00004790 g     F .text	00000014 utee_se_service_close
0001309c g     O .bss	00000004 rootkey
00004c48 g     F .text	00000148 tee_user_mem_alloc
00013080 g     O .data	00000008 user_mem_head
00001266 g     F .text	00000046 TEE_SetTAPersistentTime
0000e368 g     F .text	0000014a mpa_add_word
000047b8 g     F .text	00000014 utee_se_reader_get_prop
0000b566 g     F .text	0000011c memset
000011e2 g     F .text	00000084 TEE_GetTAPersistentTime
0000871c g     F .text	0000001e dhex_dump
0000ab12 g     F .text	000000f8 TEE_CreatePersistentObject
00001056 g     F .text	00000034 TEE_MaskCancellation
0000dbb0 g     F .text	00000068 __mpa_full_sub
000030fe g     F .text	0000007a TEE_AEUpdateAAD
00004718 g     F .text	00000014 utee_storage_obj_read
0000aff8 g     F .text	0000006c TEE_TruncateObjectData
0000b1ba g     F .text	00000020 utee_calloc
00004568 g     F .text	00000014 utee_cryp_obj_populate
0000e74e g     F .text	0000008a mpa_cmp
0000ea84 g     F .text	000000e8 mpa_inv_mod
0000e4b2 g     F .text	0000014e mpa_sub_word
0000d1b6 g     F .text	0000007a __mpa_mul_add_word
0000df62 g     F .text	000001da mpa_add
00009500 g     F .text	00000190 mpa_exp_mod
0000a2bc g     F .text	0000004c TEE_GetObjectInfo1
0000d692 g     F .text	000000b4 __mpa_shift_words_right
00008368 g     F .text	00000048 trace_set_level
00004808 g     F .text	00000014 utee_se_session_is_closed
000044f0 g     F .text	00000014 utee_cryp_obj_get_info
0000a462 g     F .text	000000de TEE_GetObjectValueAttribute
00001fa0 g     F .text	00000144 TEE_SetOperationKey
000046b4 g     F .text	00000014 utee_storage_alloc_enum
000046dc g     F .text	00000014 utee_storage_reset_enum
00004740 g     F .text	00000014 utee_storage_obj_trunc
0000e968 g     F .text	0000002c mpa_mod
0000e6fe g     F .text	0000002a __mpa_abs_greater_than
0000533a g     F .text	00000056 TEE_BigIntConvertToS32
00005490 g     F .text	00000038 TEE_BigIntSub
000043a0 g     F .text	00000014 utee_get_cancellation_flag
0000446c g     F .text	00000014 utee_hash_init
0000a0e4 g     F .text	00000014 tahead_get_trace_level
00000c68 g     F .text	00000166 __utee_from_param
0000b064 g     F .text	000000ec TEE_SeekObjectData
0000f8fc g     O .rodata	00000010 Const_1_LShift_Base
00000dce g     F .text	000000fa __utee_to_param
000070bc g     F .text	00000036 memalign
00002b04 g     F .text	00000250 TEE_CipherDoFinal
00005318 g     F .text	00000022 TEE_BigIntConvertFromS32
0000e9e4 g     F .text	00000050 mpa_sub_mod
00004504 g     F .text	00000014 utee_cryp_obj_restrict_usage
000072a0 g     F .text	0000009e malloc_buffer_is_within_alloced
0000457c g     F .text	00000014 utee_cryp_obj_copy
0000d96e g     F .text	000001de mpa_shift_right
000051aa g     F .text	0000004a TEE_BigIntInitFMMContext
00004590 g     F .text	00000014 utee_cryp_derive_key
00008c0e g     F .text	00000130 __mpa_montgomery_mul
00009fcc g     F .text	00000116 mpa_get_oct_str
0000e7d8 g     F .text	000000a8 mpa_cmp_short
00004614 g     F .text	00000018 utee_authenc_dec_final
0000af7a g     F .text	0000007e TEE_WriteObjectData
0000adac g     F .text	00000032 TEE_ResetPersistentObjectEnumerator
0000e600 g     F .text	000000fe __mpa_abs_cmp
00005528 g     F .text	00000034 TEE_BigIntSquare
00000020 g     F .text	00000034 TA_CreateEntryPoint
00007400 g     F .text	00000036 snprintk
00005434 g     F .text	00000024 TEE_BigIntGetBitCount
00005740 g     F .text	000000bc TEE_BigIntMulMod
00003cf0 g     F .text	000001a0 TEE_DeriveKey
0001b0a8 g     O .bss	00000020 ta_params
0000d366 g     F .text	0000010c __mpa_abs_mul
00005c58 g     F .text	00000268 bget
0000a572 g     F .text	00000060 TEE_AllocateTransientObject
00001318 g     F .text	0000001a TEE_Free
000047cc g     F .text	00000014 utee_se_reader_get_name
0000137a g     F .text	00000024 TEE_CacheInvalidate
000044ac g     F .text	00000014 utee_cipher_init
000050cc g     F .text	00000014 _assert_break
00005638 g     F .text	00000084 TEE_BigIntAddMod
000046c8 g     F .text	00000014 utee_storage_free_enum
000045d0 g     F .text	00000014 utee_authenc_update_aad
000088e2 g     F .text	0000006a mpa_get_bit
000013a0 g     F .text	00000940 TEE_AllocateOperation
0000cf9a g     F .text	00000032 mpa_init_scratch_mem
00003e90 g     F .text	0000002c TEE_GenerateRandom
00001134 g     F .text	00000024 TEE_MemCompare
00007464 g     F .text	00000072 __vsnprintf
0000ad7a g     F .text	00000032 TEE_FreePersistentObjectEnumerator
000042e0 g     F .text	00000014 utee_panic
00000ec8 g     F .text	00000066 TEE_OpenTASession
00005ac4 g     F .text	00000024 trace_ext_puts
00005048 g     F .text	0000003c tee_user_mem_garbage
00005ae8 g     F .text	00000014 trace_ext_get_thread_id
0000ac0a g     F .text	00000032 TEE_CloseAndDeletePersistentObject
00001332 g     F .text	00000024 TEE_CacheClean
0000435c g     F .text	00000018 utee_open_ta_session
0000b70c g     F .text	00000094 buf_compare_ct
0000bdb2 g     F .text	00000058 __mpa_div_dword
0000876c g     F .text	00000048 __mpa_set_unused_digits_to_zero
0000f8f0 g     O .rodata	0000000c const_largest_deci_base
00009a62 g     F .text	00000014 mpa_get_str_size
00004f6c g     F .text	00000074 tee_user_mem_check_heap
0000a8a4 g     F .text	000000b8 TEE_CopyObjectAttributes1
00004494 g     F .text	00000018 utee_hash_final
0000b682 g     F .text	0000008a strlen
00005904 g     F .text	0000004c TEE_BigIntComputeExtendedGcd
0000b7b0 g     F .text	00000010 __aeabi_unwind_cpp_pr1
0000cd78 g     F .text	000001da mpa_extended_gcd
0000e994 g     F .text	00000050 mpa_add_mod
0000465c g     F .text	00000018 utee_storage_obj_open
00004388 g     F .text	00000018 utee_invoke_ta_command
00000170 g     F .text	000000fc prepare_rsa_operation
00009da8 g     F .text	00000090 mpa_get_str
000043f0 g     F .text	00000014 utee_wait
0000b1da g     F .text	0000001a utee_free
00004f4c g     F .text	00000020 tee_user_mem_mark_heap
0000117e g     F .text	0000002c TEE_GetSystemTime
00000000 g     O .ta_head	00000020 ta_head
00005fe8 g     F .text	00000360 brel
0000cfcc g     F .text	00000134 mpa_alloc_static_temp_var_size
00004404 g     F .text	00000014 utee_get_time
000089c0 g     F .text	00000134 __mpa_montgomery_mul_add
0000026c g     F .text	00000034 check_params
000010cc g     F .text	00000028 TEE_SetInstanceData
0000051c g     F .text	0000018c RSA_decrypt
000043c8 g     F .text	00000014 utee_unmask_cancellation
0000873c g     F .text	00000018 __aeabi_ldivmod
000043b4 g     F .text	00000014 utee_check_access_rights
000047f4 g     F .text	00000014 utee_se_reader_close_sessions
0000ae38 g     F .text	000000ba TEE_GetNextPersistentObject
00004768 g     F .text	00000014 utee_cryp_obj_generate_key
000002a0 g     F .text	000000f0 RSA_create_key_pair
000089a8 g     F .text	00000018 mpa_constant_one
00000f2e g     F .text	00000030 TEE_CloseTASession
00003b88 g     F .text	00000168 TEE_AsymmetricVerifyDigest
0000db4c g     F .text	00000064 __mpa_full_adder
0000de76 g     F .text	000000ec __mpa_abs_sub
0001dc30 g       .bss	00000000 __gprof_buf_start
0000700a g     F .text	00000026 free
0000646c g     F .text	000000c4 bstats
00002e48 g     F .text	000000f6 TEE_MACComputeFinal



Disassembly of section .text:

00000020 <TA_CreateEntryPoint>:
TA_CreateEntryPoint():
/home/meander/optee/optee_examples/TEEencrypt/ta/TEEencrypt_ta.c:55
      20:	e96d 7e02 	strd	r7, lr, [sp, #-8]!
      24:	b082      	sub	sp, #8
      26:	af02      	add	r7, sp, #8
/home/meander/optee/optee_examples/TEEencrypt/ta/TEEencrypt_ta.c:56
      28:	4b08      	ldr	r3, [pc, #32]	; (4c <TA_CreateEntryPoint+0x2c>)
      2a:	447b      	add	r3, pc
      2c:	9300      	str	r3, [sp, #0]
      2e:	f04f 0301 	mov.w	r3, #1
      32:	f04f 0203 	mov.w	r2, #3
      36:	f04f 0138 	mov.w	r1, #56	; 0x38
      3a:	4805      	ldr	r0, [pc, #20]	; (50 <TA_CreateEntryPoint+0x30>)
      3c:	4478      	add	r0, pc
      3e:	f008 f9f7 	bl	8430 <trace_printf>
/home/meander/optee/optee_examples/TEEencrypt/ta/TEEencrypt_ta.c:58
      42:	f04f 0300 	mov.w	r3, #0
/home/meander/optee/optee_examples/TEEencrypt/ta/TEEencrypt_ta.c:59
      46:	4618      	mov	r0, r3
      48:	46bd      	mov	sp, r7
      4a:	bd80      	pop	{r7, pc}
      4c:	0000eb3e 	.word	0x0000eb3e
      50:	0000ef0c 	.word	0x0000ef0c

00000054 <TA_DestroyEntryPoint>:
TA_DestroyEntryPoint():
/home/meander/optee/optee_examples/TEEencrypt/ta/TEEencrypt_ta.c:66
      54:	e96d 7e02 	strd	r7, lr, [sp, #-8]!
      58:	b082      	sub	sp, #8
      5a:	af02      	add	r7, sp, #8
/home/meander/optee/optee_examples/TEEencrypt/ta/TEEencrypt_ta.c:67
      5c:	4b07      	ldr	r3, [pc, #28]	; (7c <TA_DestroyEntryPoint+0x28>)
      5e:	447b      	add	r3, pc
      60:	9300      	str	r3, [sp, #0]
      62:	f04f 0301 	mov.w	r3, #1
      66:	f04f 0203 	mov.w	r2, #3
      6a:	f04f 0143 	mov.w	r1, #67	; 0x43
      6e:	4804      	ldr	r0, [pc, #16]	; (80 <TA_DestroyEntryPoint+0x2c>)
      70:	4478      	add	r0, pc
      72:	f008 f9dd 	bl	8430 <trace_printf>
/home/meander/optee/optee_examples/TEEencrypt/ta/TEEencrypt_ta.c:68
      76:	bf00      	nop
      78:	46bd      	mov	sp, r7
      7a:	bd80      	pop	{r7, pc}
      7c:	0000eb0a 	.word	0x0000eb0a
      80:	0000eeec 	.word	0x0000eeec

00000084 <TA_OpenSessionEntryPoint>:
TA_OpenSessionEntryPoint():
/home/meander/optee/optee_examples/TEEencrypt/ta/TEEencrypt_ta.c:79
      84:	e96d 7e02 	strd	r7, lr, [sp, #-8]!
      88:	b088      	sub	sp, #32
      8a:	af02      	add	r7, sp, #8
      8c:	60f8      	str	r0, [r7, #12]
      8e:	60b9      	str	r1, [r7, #8]
      90:	607a      	str	r2, [r7, #4]
/home/meander/optee/optee_examples/TEEencrypt/ta/TEEencrypt_ta.c:81
      92:	f04f 0300 	mov.w	r3, #0
      96:	617b      	str	r3, [r7, #20]
/home/meander/optee/optee_examples/TEEencrypt/ta/TEEencrypt_ta.c:86
      98:	4b23      	ldr	r3, [pc, #140]	; (128 <TA_OpenSessionEntryPoint+0xa4>)
      9a:	447b      	add	r3, pc
      9c:	9300      	str	r3, [sp, #0]
      9e:	f04f 0301 	mov.w	r3, #1
      a2:	f04f 0203 	mov.w	r2, #3
      a6:	f04f 0156 	mov.w	r1, #86	; 0x56
      aa:	4820      	ldr	r0, [pc, #128]	; (12c <TA_OpenSessionEntryPoint+0xa8>)
      ac:	4478      	add	r0, pc
      ae:	f008 f9bf 	bl	8430 <trace_printf>
/home/meander/optee/optee_examples/TEEencrypt/ta/TEEencrypt_ta.c:88
      b2:	68fa      	ldr	r2, [r7, #12]
      b4:	697b      	ldr	r3, [r7, #20]
      b6:	429a      	cmp	r2, r3
      b8:	d004      	beq.n	c4 <TA_OpenSessionEntryPoint+0x40>
/home/meander/optee/optee_examples/TEEencrypt/ta/TEEencrypt_ta.c:89
      ba:	f04f 0306 	mov.w	r3, #6
      be:	f6cf 73ff 	movt	r3, #65535	; 0xffff
      c2:	e02b      	b.n	11c <TA_OpenSessionEntryPoint+0x98>
/home/meander/optee/optee_examples/TEEencrypt/ta/TEEencrypt_ta.c:91
      c4:	f04f 0100 	mov.w	r1, #0
      c8:	f04f 0008 	mov.w	r0, #8
      cc:	f001 f904 	bl	12d8 <TEE_Malloc>
      d0:	6138      	str	r0, [r7, #16]
/home/meander/optee/optee_examples/TEEencrypt/ta/TEEencrypt_ta.c:92
      d2:	693b      	ldr	r3, [r7, #16]
      d4:	2b00      	cmp	r3, #0
      d6:	d104      	bne.n	e2 <TA_OpenSessionEntryPoint+0x5e>
/home/meander/optee/optee_examples/TEEencrypt/ta/TEEencrypt_ta.c:93
      d8:	f04f 030c 	mov.w	r3, #12
      dc:	f6cf 73ff 	movt	r3, #65535	; 0xffff
      e0:	e01c      	b.n	11c <TA_OpenSessionEntryPoint+0x98>
/home/meander/optee/optee_examples/TEEencrypt/ta/TEEencrypt_ta.c:95
      e2:	693b      	ldr	r3, [r7, #16]
      e4:	f04f 0200 	mov.w	r2, #0
      e8:	605a      	str	r2, [r3, #4]
/home/meander/optee/optee_examples/TEEencrypt/ta/TEEencrypt_ta.c:96
      ea:	693b      	ldr	r3, [r7, #16]
      ec:	f04f 0200 	mov.w	r2, #0
      f0:	601a      	str	r2, [r3, #0]
/home/meander/optee/optee_examples/TEEencrypt/ta/TEEencrypt_ta.c:98
      f2:	687b      	ldr	r3, [r7, #4]
      f4:	693a      	ldr	r2, [r7, #16]
      f6:	601a      	str	r2, [r3, #0]
/home/meander/optee/optee_examples/TEEencrypt/ta/TEEencrypt_ta.c:99
      f8:	687b      	ldr	r3, [r7, #4]
      fa:	681b      	ldr	r3, [r3, #0]
      fc:	9301      	str	r3, [sp, #4]
      fe:	4b0c      	ldr	r3, [pc, #48]	; (130 <TA_OpenSessionEntryPoint+0xac>)
     100:	447b      	add	r3, pc
     102:	9300      	str	r3, [sp, #0]
     104:	f04f 0301 	mov.w	r3, #1
     108:	f04f 0203 	mov.w	r2, #3
     10c:	f04f 0163 	mov.w	r1, #99	; 0x63
     110:	4808      	ldr	r0, [pc, #32]	; (134 <TA_OpenSessionEntryPoint+0xb0>)
     112:	4478      	add	r0, pc
     114:	f008 f98c 	bl	8430 <trace_printf>
/home/meander/optee/optee_examples/TEEencrypt/ta/TEEencrypt_ta.c:102
     118:	f04f 0300 	mov.w	r3, #0
/home/meander/optee/optee_examples/TEEencrypt/ta/TEEencrypt_ta.c:103
     11c:	4618      	mov	r0, r3
     11e:	f107 0718 	add.w	r7, r7, #24
     122:	46bd      	mov	sp, r7
     124:	bd80      	pop	{r7, pc}
     126:	bf00      	nop
     128:	0000eace 	.word	0x0000eace
     12c:	0000eec8 	.word	0x0000eec8
     130:	0000ea78 	.word	0x0000ea78
     134:	0000ee62 	.word	0x0000ee62

00000138 <TA_CloseSessionEntryPoint>:
TA_CloseSessionEntryPoint():
/home/meander/optee/optee_examples/TEEencrypt/ta/TEEencrypt_ta.c:110
     138:	e96d 7e02 	strd	r7, lr, [sp, #-8]!
     13c:	b084      	sub	sp, #16
     13e:	af02      	add	r7, sp, #8
     140:	6078      	str	r0, [r7, #4]
/home/meander/optee/optee_examples/TEEencrypt/ta/TEEencrypt_ta.c:112
     142:	4b09      	ldr	r3, [pc, #36]	; (168 <TA_CloseSessionEntryPoint+0x30>)
     144:	447b      	add	r3, pc
     146:	9300      	str	r3, [sp, #0]
     148:	f04f 0301 	mov.w	r3, #1
     14c:	f04f 0202 	mov.w	r2, #2
     150:	f04f 0170 	mov.w	r1, #112	; 0x70
     154:	4805      	ldr	r0, [pc, #20]	; (16c <TA_CloseSessionEntryPoint+0x34>)
     156:	4478      	add	r0, pc
     158:	f008 f96a 	bl	8430 <trace_printf>
/home/meander/optee/optee_examples/TEEencrypt/ta/TEEencrypt_ta.c:113
     15c:	bf00      	nop
     15e:	f107 0708 	add.w	r7, r7, #8
     162:	46bd      	mov	sp, r7
     164:	bd80      	pop	{r7, pc}
     166:	bf00      	nop
     168:	0000ea54 	.word	0x0000ea54
     16c:	0000ee3a 	.word	0x0000ee3a

00000170 <prepare_rsa_operation>:
prepare_rsa_operation():
/home/meander/optee/optee_examples/TEEencrypt/ta/TEEencrypt_ta.c:115
     170:	e96d 7e02 	strd	r7, lr, [sp, #-8]!
     174:	b08e      	sub	sp, #56	; 0x38
     176:	af02      	add	r7, sp, #8
     178:	60f8      	str	r0, [r7, #12]
     17a:	60b9      	str	r1, [r7, #8]
     17c:	607a      	str	r2, [r7, #4]
     17e:	603b      	str	r3, [r7, #0]
/home/meander/optee/optee_examples/TEEencrypt/ta/TEEencrypt_ta.c:116
     180:	f04f 0300 	mov.w	r3, #0
     184:	62fb      	str	r3, [r7, #44]	; 0x2c
/home/meander/optee/optee_examples/TEEencrypt/ta/TEEencrypt_ta.c:118
     186:	f107 0310 	add.w	r3, r7, #16
     18a:	4619      	mov	r1, r3
     18c:	6838      	ldr	r0, [r7, #0]
     18e:	f00a f895 	bl	a2bc <TEE_GetObjectInfo1>
     192:	62f8      	str	r0, [r7, #44]	; 0x2c
/home/meander/optee/optee_examples/TEEencrypt/ta/TEEencrypt_ta.c:119
     194:	6afb      	ldr	r3, [r7, #44]	; 0x2c
     196:	2b00      	cmp	r3, #0
     198:	d001      	beq.n	19e <prepare_rsa_operation+0x2e>
/home/meander/optee/optee_examples/TEEencrypt/ta/TEEencrypt_ta.c:121
     19a:	6afb      	ldr	r3, [r7, #44]	; 0x2c
     19c:	e050      	b.n	240 <prepare_rsa_operation+0xd0>
/home/meander/optee/optee_examples/TEEencrypt/ta/TEEencrypt_ta.c:124
     19e:	697b      	ldr	r3, [r7, #20]
     1a0:	687a      	ldr	r2, [r7, #4]
     1a2:	68b9      	ldr	r1, [r7, #8]
     1a4:	68f8      	ldr	r0, [r7, #12]
     1a6:	f001 f8fb 	bl	13a0 <TEE_AllocateOperation>
     1aa:	62f8      	str	r0, [r7, #44]	; 0x2c
/home/meander/optee/optee_examples/TEEencrypt/ta/TEEencrypt_ta.c:125
     1ac:	6afb      	ldr	r3, [r7, #44]	; 0x2c
     1ae:	2b00      	cmp	r3, #0
     1b0:	d010      	beq.n	1d4 <prepare_rsa_operation+0x64>
/home/meander/optee/optee_examples/TEEencrypt/ta/TEEencrypt_ta.c:126
     1b2:	6afb      	ldr	r3, [r7, #44]	; 0x2c
     1b4:	9301      	str	r3, [sp, #4]
     1b6:	4b25      	ldr	r3, [pc, #148]	; (24c <prepare_rsa_operation+0xdc>)
     1b8:	447b      	add	r3, pc
     1ba:	9300      	str	r3, [sp, #0]
     1bc:	f04f 0301 	mov.w	r3, #1
     1c0:	f04f 0201 	mov.w	r2, #1
     1c4:	f04f 017e 	mov.w	r1, #126	; 0x7e
     1c8:	4821      	ldr	r0, [pc, #132]	; (250 <prepare_rsa_operation+0xe0>)
     1ca:	4478      	add	r0, pc
     1cc:	f008 f930 	bl	8430 <trace_printf>
/home/meander/optee/optee_examples/TEEencrypt/ta/TEEencrypt_ta.c:127
     1d0:	6afb      	ldr	r3, [r7, #44]	; 0x2c
     1d2:	e035      	b.n	240 <prepare_rsa_operation+0xd0>
/home/meander/optee/optee_examples/TEEencrypt/ta/TEEencrypt_ta.c:129
     1d4:	4b1f      	ldr	r3, [pc, #124]	; (254 <prepare_rsa_operation+0xe4>)
     1d6:	447b      	add	r3, pc
     1d8:	9300      	str	r3, [sp, #0]
     1da:	f04f 0301 	mov.w	r3, #1
     1de:	f04f 0203 	mov.w	r2, #3
     1e2:	f04f 0181 	mov.w	r1, #129	; 0x81
     1e6:	481c      	ldr	r0, [pc, #112]	; (258 <prepare_rsa_operation+0xe8>)
     1e8:	4478      	add	r0, pc
     1ea:	f008 f921 	bl	8430 <trace_printf>
/home/meander/optee/optee_examples/TEEencrypt/ta/TEEencrypt_ta.c:131
     1ee:	68fb      	ldr	r3, [r7, #12]
     1f0:	681b      	ldr	r3, [r3, #0]
     1f2:	6839      	ldr	r1, [r7, #0]
     1f4:	4618      	mov	r0, r3
     1f6:	f001 fed3 	bl	1fa0 <TEE_SetOperationKey>
     1fa:	62f8      	str	r0, [r7, #44]	; 0x2c
/home/meander/optee/optee_examples/TEEencrypt/ta/TEEencrypt_ta.c:132
     1fc:	6afb      	ldr	r3, [r7, #44]	; 0x2c
     1fe:	2b00      	cmp	r3, #0
     200:	d010      	beq.n	224 <prepare_rsa_operation+0xb4>
/home/meander/optee/optee_examples/TEEencrypt/ta/TEEencrypt_ta.c:133
     202:	6afb      	ldr	r3, [r7, #44]	; 0x2c
     204:	9301      	str	r3, [sp, #4]
     206:	4b15      	ldr	r3, [pc, #84]	; (25c <prepare_rsa_operation+0xec>)
     208:	447b      	add	r3, pc
     20a:	9300      	str	r3, [sp, #0]
     20c:	f04f 0301 	mov.w	r3, #1
     210:	f04f 0201 	mov.w	r2, #1
     214:	f04f 0185 	mov.w	r1, #133	; 0x85
     218:	4811      	ldr	r0, [pc, #68]	; (260 <prepare_rsa_operation+0xf0>)
     21a:	4478      	add	r0, pc
     21c:	f008 f908 	bl	8430 <trace_printf>
/home/meander/optee/optee_examples/TEEencrypt/ta/TEEencrypt_ta.c:134
     220:	6afb      	ldr	r3, [r7, #44]	; 0x2c
     222:	e00d      	b.n	240 <prepare_rsa_operation+0xd0>
/home/meander/optee/optee_examples/TEEencrypt/ta/TEEencrypt_ta.c:136
     224:	4b0f      	ldr	r3, [pc, #60]	; (264 <prepare_rsa_operation+0xf4>)
     226:	447b      	add	r3, pc
     228:	9300      	str	r3, [sp, #0]
     22a:	f04f 0301 	mov.w	r3, #1
     22e:	f04f 0203 	mov.w	r2, #3
     232:	f04f 0188 	mov.w	r1, #136	; 0x88
     236:	480c      	ldr	r0, [pc, #48]	; (268 <prepare_rsa_operation+0xf8>)
     238:	4478      	add	r0, pc
     23a:	f008 f8f9 	bl	8430 <trace_printf>
/home/meander/optee/optee_examples/TEEencrypt/ta/TEEencrypt_ta.c:138
     23e:	6afb      	ldr	r3, [r7, #44]	; 0x2c
/home/meander/optee/optee_examples/TEEencrypt/ta/TEEencrypt_ta.c:139 (discriminator 1)
     240:	4618      	mov	r0, r3
     242:	f107 0730 	add.w	r7, r7, #48	; 0x30
     246:	46bd      	mov	sp, r7
     248:	bd80      	pop	{r7, pc}
     24a:	bf00      	nop
     24c:	0000e9ec 	.word	0x0000e9ec
     250:	0000ede2 	.word	0x0000ede2
     254:	0000e9fa 	.word	0x0000e9fa
     258:	0000edc4 	.word	0x0000edc4
     25c:	0000ea04 	.word	0x0000ea04
     260:	0000ed92 	.word	0x0000ed92
     264:	0000ea02 	.word	0x0000ea02
     268:	0000ed74 	.word	0x0000ed74

0000026c <check_params>:
check_params():
/home/meander/optee/optee_examples/TEEencrypt/ta/TEEencrypt_ta.c:140
     26c:	f84d 7d04 	str.w	r7, [sp, #-4]!
     270:	b085      	sub	sp, #20
     272:	af00      	add	r7, sp, #0
     274:	6078      	str	r0, [r7, #4]
/home/meander/optee/optee_examples/TEEencrypt/ta/TEEencrypt_ta.c:141
     276:	f04f 0365 	mov.w	r3, #101	; 0x65
     27a:	60fb      	str	r3, [r7, #12]
/home/meander/optee/optee_examples/TEEencrypt/ta/TEEencrypt_ta.c:148
     27c:	687a      	ldr	r2, [r7, #4]
     27e:	68fb      	ldr	r3, [r7, #12]
     280:	429a      	cmp	r2, r3
     282:	d004      	beq.n	28e <check_params+0x22>
/home/meander/optee/optee_examples/TEEencrypt/ta/TEEencrypt_ta.c:149
     284:	f04f 0306 	mov.w	r3, #6
     288:	f6cf 73ff 	movt	r3, #65535	; 0xffff
     28c:	e001      	b.n	292 <check_params+0x26>
/home/meander/optee/optee_examples/TEEencrypt/ta/TEEencrypt_ta.c:150
     28e:	f04f 0300 	mov.w	r3, #0
/home/meander/optee/optee_examples/TEEencrypt/ta/TEEencrypt_ta.c:151
     292:	4618      	mov	r0, r3
     294:	f107 0714 	add.w	r7, r7, #20
     298:	46bd      	mov	sp, r7
     29a:	f85d 7b04 	ldr.w	r7, [sp], #4
     29e:	4770      	bx	lr

000002a0 <RSA_create_key_pair>:
RSA_create_key_pair():
/home/meander/optee/optee_examples/TEEencrypt/ta/TEEencrypt_ta.c:153
     2a0:	e96d 7e02 	strd	r7, lr, [sp, #-8]!
     2a4:	b088      	sub	sp, #32
     2a6:	af02      	add	r7, sp, #8
     2a8:	6078      	str	r0, [r7, #4]
/home/meander/optee/optee_examples/TEEencrypt/ta/TEEencrypt_ta.c:155
     2aa:	f44f 6380 	mov.w	r3, #1024	; 0x400
     2ae:	617b      	str	r3, [r7, #20]
/home/meander/optee/optee_examples/TEEencrypt/ta/TEEencrypt_ta.c:156
     2b0:	687b      	ldr	r3, [r7, #4]
     2b2:	613b      	str	r3, [r7, #16]
/home/meander/optee/optee_examples/TEEencrypt/ta/TEEencrypt_ta.c:157
     2b4:	693b      	ldr	r3, [r7, #16]
     2b6:	f103 0304 	add.w	r3, r3, #4
     2ba:	461a      	mov	r2, r3
     2bc:	6979      	ldr	r1, [r7, #20]
     2be:	f04f 0030 	mov.w	r0, #48	; 0x30
     2c2:	f2ca 1000 	movt	r0, #41216	; 0xa100
     2c6:	f00a f954 	bl	a572 <TEE_AllocateTransientObject>
     2ca:	60f8      	str	r0, [r7, #12]
/home/meander/optee/optee_examples/TEEencrypt/ta/TEEencrypt_ta.c:158
     2cc:	68fb      	ldr	r3, [r7, #12]
     2ce:	2b00      	cmp	r3, #0
     2d0:	d010      	beq.n	2f4 <RSA_create_key_pair+0x54>
/home/meander/optee/optee_examples/TEEencrypt/ta/TEEencrypt_ta.c:159
     2d2:	68fb      	ldr	r3, [r7, #12]
     2d4:	9301      	str	r3, [sp, #4]
     2d6:	4b26      	ldr	r3, [pc, #152]	; (370 <RSA_create_key_pair+0xd0>)
     2d8:	447b      	add	r3, pc
     2da:	9300      	str	r3, [sp, #0]
     2dc:	f04f 0301 	mov.w	r3, #1
     2e0:	f04f 0201 	mov.w	r2, #1
     2e4:	f04f 019f 	mov.w	r1, #159	; 0x9f
     2e8:	4822      	ldr	r0, [pc, #136]	; (374 <RSA_create_key_pair+0xd4>)
     2ea:	4478      	add	r0, pc
     2ec:	f008 f8a0 	bl	8430 <trace_printf>
/home/meander/optee/optee_examples/TEEencrypt/ta/TEEencrypt_ta.c:160
     2f0:	68fb      	ldr	r3, [r7, #12]
     2f2:	e038      	b.n	366 <RSA_create_key_pair+0xc6>
/home/meander/optee/optee_examples/TEEencrypt/ta/TEEencrypt_ta.c:162
     2f4:	4b20      	ldr	r3, [pc, #128]	; (378 <RSA_create_key_pair+0xd8>)
     2f6:	447b      	add	r3, pc
     2f8:	9300      	str	r3, [sp, #0]
     2fa:	f04f 0301 	mov.w	r3, #1
     2fe:	f04f 0203 	mov.w	r2, #3
     302:	f04f 01a2 	mov.w	r1, #162	; 0xa2
     306:	481d      	ldr	r0, [pc, #116]	; (37c <RSA_create_key_pair+0xdc>)
     308:	4478      	add	r0, pc
     30a:	f008 f891 	bl	8430 <trace_printf>
/home/meander/optee/optee_examples/TEEencrypt/ta/TEEencrypt_ta.c:164
     30e:	693b      	ldr	r3, [r7, #16]
     310:	6858      	ldr	r0, [r3, #4]
     312:	f04f 0300 	mov.w	r3, #0
     316:	f04f 0200 	mov.w	r2, #0
     31a:	6979      	ldr	r1, [r7, #20]
     31c:	f00a fb1e 	bl	a95c <TEE_GenerateKey>
     320:	60f8      	str	r0, [r7, #12]
/home/meander/optee/optee_examples/TEEencrypt/ta/TEEencrypt_ta.c:165
     322:	68fb      	ldr	r3, [r7, #12]
     324:	2b00      	cmp	r3, #0
     326:	d010      	beq.n	34a <RSA_create_key_pair+0xaa>
/home/meander/optee/optee_examples/TEEencrypt/ta/TEEencrypt_ta.c:166
     328:	68fb      	ldr	r3, [r7, #12]
     32a:	9301      	str	r3, [sp, #4]
     32c:	4b14      	ldr	r3, [pc, #80]	; (380 <RSA_create_key_pair+0xe0>)
     32e:	447b      	add	r3, pc
     330:	9300      	str	r3, [sp, #0]
     332:	f04f 0301 	mov.w	r3, #1
     336:	f04f 0201 	mov.w	r2, #1
     33a:	f04f 01a6 	mov.w	r1, #166	; 0xa6
     33e:	4811      	ldr	r0, [pc, #68]	; (384 <RSA_create_key_pair+0xe4>)
     340:	4478      	add	r0, pc
     342:	f008 f875 	bl	8430 <trace_printf>
/home/meander/optee/optee_examples/TEEencrypt/ta/TEEencrypt_ta.c:167
     346:	68fb      	ldr	r3, [r7, #12]
     348:	e00d      	b.n	366 <RSA_create_key_pair+0xc6>
/home/meander/optee/optee_examples/TEEencrypt/ta/TEEencrypt_ta.c:169
     34a:	4b0f      	ldr	r3, [pc, #60]	; (388 <RSA_create_key_pair+0xe8>)
     34c:	447b      	add	r3, pc
     34e:	9300      	str	r3, [sp, #0]
     350:	f04f 0301 	mov.w	r3, #1
     354:	f04f 0203 	mov.w	r2, #3
     358:	f04f 01a9 	mov.w	r1, #169	; 0xa9
     35c:	480b      	ldr	r0, [pc, #44]	; (38c <RSA_create_key_pair+0xec>)
     35e:	4478      	add	r0, pc
     360:	f008 f866 	bl	8430 <trace_printf>
/home/meander/optee/optee_examples/TEEencrypt/ta/TEEencrypt_ta.c:170
     364:	68fb      	ldr	r3, [r7, #12]
/home/meander/optee/optee_examples/TEEencrypt/ta/TEEencrypt_ta.c:171
     366:	4618      	mov	r0, r3
     368:	f107 0718 	add.w	r7, r7, #24
     36c:	46bd      	mov	sp, r7
     36e:	bd80      	pop	{r7, pc}
     370:	0000e984 	.word	0x0000e984
     374:	0000ecda 	.word	0x0000ecda
     378:	0000e996 	.word	0x0000e996
     37c:	0000ecbc 	.word	0x0000ecbc
     380:	0000e992 	.word	0x0000e992
     384:	0000ec84 	.word	0x0000ec84
     388:	0000e994 	.word	0x0000e994
     38c:	0000ec66 	.word	0x0000ec66

00000390 <RSA_encrypt>:
RSA_encrypt():
/home/meander/optee/optee_examples/TEEencrypt/ta/TEEencrypt_ta.c:173
     390:	e96d 7e02 	strd	r7, lr, [sp, #-8]!
     394:	b090      	sub	sp, #64	; 0x40
     396:	af04      	add	r7, sp, #16
     398:	60f8      	str	r0, [r7, #12]
     39a:	60b9      	str	r1, [r7, #8]
     39c:	607a      	str	r2, [r7, #4]
/home/meander/optee/optee_examples/TEEencrypt/ta/TEEencrypt_ta.c:174
     39e:	687b      	ldr	r3, [r7, #4]
     3a0:	681b      	ldr	r3, [r3, #0]
     3a2:	62bb      	str	r3, [r7, #40]	; 0x28
/home/meander/optee/optee_examples/TEEencrypt/ta/TEEencrypt_ta.c:175
     3a4:	687b      	ldr	r3, [r7, #4]
     3a6:	685b      	ldr	r3, [r3, #4]
     3a8:	627b      	str	r3, [r7, #36]	; 0x24
/home/meander/optee/optee_examples/TEEencrypt/ta/TEEencrypt_ta.c:176
     3aa:	687b      	ldr	r3, [r7, #4]
     3ac:	f103 0308 	add.w	r3, r3, #8
     3b0:	681b      	ldr	r3, [r3, #0]
     3b2:	623b      	str	r3, [r7, #32]
/home/meander/optee/optee_examples/TEEencrypt/ta/TEEencrypt_ta.c:177
     3b4:	687b      	ldr	r3, [r7, #4]
     3b6:	f103 0308 	add.w	r3, r3, #8
     3ba:	685b      	ldr	r3, [r3, #4]
     3bc:	617b      	str	r3, [r7, #20]
/home/meander/optee/optee_examples/TEEencrypt/ta/TEEencrypt_ta.c:179
     3be:	f44f 7398 	mov.w	r3, #304	; 0x130
     3c2:	f2c6 0300 	movt	r3, #24576	; 0x6000
     3c6:	61fb      	str	r3, [r7, #28]
/home/meander/optee/optee_examples/TEEencrypt/ta/TEEencrypt_ta.c:180
     3c8:	68fb      	ldr	r3, [r7, #12]
     3ca:	61bb      	str	r3, [r7, #24]
/home/meander/optee/optee_examples/TEEencrypt/ta/TEEencrypt_ta.c:182
     3cc:	68b8      	ldr	r0, [r7, #8]
     3ce:	f7ff ff4d 	bl	26c <check_params>
     3d2:	4603      	mov	r3, r0
     3d4:	2b00      	cmp	r3, #0
     3d6:	d004      	beq.n	3e2 <RSA_encrypt+0x52>
/home/meander/optee/optee_examples/TEEencrypt/ta/TEEencrypt_ta.c:183
     3d8:	f04f 0306 	mov.w	r3, #6
     3dc:	f6cf 73ff 	movt	r3, #65535	; 0xffff
     3e0:	e07f      	b.n	4e2 <RSA_encrypt+0x152>
/home/meander/optee/optee_examples/TEEencrypt/ta/TEEencrypt_ta.c:185
     3e2:	4b42      	ldr	r3, [pc, #264]	; (4ec <RSA_encrypt+0x15c>)
     3e4:	447b      	add	r3, pc
     3e6:	9300      	str	r3, [sp, #0]
     3e8:	f04f 0301 	mov.w	r3, #1
     3ec:	f04f 0203 	mov.w	r2, #3
     3f0:	f04f 01b9 	mov.w	r1, #185	; 0xb9
     3f4:	483e      	ldr	r0, [pc, #248]	; (4f0 <RSA_encrypt+0x160>)
     3f6:	4478      	add	r0, pc
     3f8:	f008 f81a 	bl	8430 <trace_printf>
/home/meander/optee/optee_examples/TEEencrypt/ta/TEEencrypt_ta.c:186
     3fc:	69b8      	ldr	r0, [r7, #24]
     3fe:	69bb      	ldr	r3, [r7, #24]
     400:	685b      	ldr	r3, [r3, #4]
     402:	f04f 0200 	mov.w	r2, #0
     406:	69f9      	ldr	r1, [r7, #28]
     408:	f7ff feb2 	bl	170 <prepare_rsa_operation>
     40c:	62f8      	str	r0, [r7, #44]	; 0x2c
/home/meander/optee/optee_examples/TEEencrypt/ta/TEEencrypt_ta.c:187
     40e:	6afb      	ldr	r3, [r7, #44]	; 0x2c
     410:	2b00      	cmp	r3, #0
     412:	d00f      	beq.n	434 <RSA_encrypt+0xa4>
/home/meander/optee/optee_examples/TEEencrypt/ta/TEEencrypt_ta.c:188
     414:	6afb      	ldr	r3, [r7, #44]	; 0x2c
     416:	9301      	str	r3, [sp, #4]
     418:	4b36      	ldr	r3, [pc, #216]	; (4f4 <RSA_encrypt+0x164>)
     41a:	447b      	add	r3, pc
     41c:	9300      	str	r3, [sp, #0]
     41e:	f04f 0301 	mov.w	r3, #1
     422:	f04f 0201 	mov.w	r2, #1
     426:	f04f 01bc 	mov.w	r1, #188	; 0xbc
     42a:	4833      	ldr	r0, [pc, #204]	; (4f8 <RSA_encrypt+0x168>)
     42c:	4478      	add	r0, pc
     42e:	f007 ffff 	bl	8430 <trace_printf>
/home/meander/optee/optee_examples/TEEencrypt/ta/TEEencrypt_ta.c:189
     432:	e050      	b.n	4d6 <RSA_encrypt+0x146>
/home/meander/optee/optee_examples/TEEencrypt/ta/TEEencrypt_ta.c:191
     434:	6abb      	ldr	r3, [r7, #40]	; 0x28
     436:	9301      	str	r3, [sp, #4]
     438:	4b30      	ldr	r3, [pc, #192]	; (4fc <RSA_encrypt+0x16c>)
     43a:	447b      	add	r3, pc
     43c:	9300      	str	r3, [sp, #0]
     43e:	f04f 0301 	mov.w	r3, #1
     442:	f04f 0203 	mov.w	r2, #3
     446:	f04f 01bf 	mov.w	r1, #191	; 0xbf
     44a:	482d      	ldr	r0, [pc, #180]	; (500 <RSA_encrypt+0x170>)
     44c:	4478      	add	r0, pc
     44e:	f007 ffef 	bl	8430 <trace_printf>
/home/meander/optee/optee_examples/TEEencrypt/ta/TEEencrypt_ta.c:192
     452:	69bb      	ldr	r3, [r7, #24]
     454:	6818      	ldr	r0, [r3, #0]
     456:	f107 0314 	add.w	r3, r7, #20
     45a:	9302      	str	r3, [sp, #8]
     45c:	6a3b      	ldr	r3, [r7, #32]
     45e:	9301      	str	r3, [sp, #4]
     460:	6a7b      	ldr	r3, [r7, #36]	; 0x24
     462:	9300      	str	r3, [sp, #0]
     464:	6abb      	ldr	r3, [r7, #40]	; 0x28
     466:	f04f 0200 	mov.w	r2, #0
     46a:	f04f 0100 	mov.w	r1, #0
     46e:	f003 f935 	bl	36dc <TEE_AsymmetricEncrypt>
     472:	62f8      	str	r0, [r7, #44]	; 0x2c
/home/meander/optee/optee_examples/TEEencrypt/ta/TEEencrypt_ta.c:194
     474:	6afb      	ldr	r3, [r7, #44]	; 0x2c
     476:	2b00      	cmp	r3, #0
     478:	d00f      	beq.n	49a <RSA_encrypt+0x10a>
/home/meander/optee/optee_examples/TEEencrypt/ta/TEEencrypt_ta.c:195
     47a:	6afb      	ldr	r3, [r7, #44]	; 0x2c
     47c:	9301      	str	r3, [sp, #4]
     47e:	4b21      	ldr	r3, [pc, #132]	; (504 <RSA_encrypt+0x174>)
     480:	447b      	add	r3, pc
     482:	9300      	str	r3, [sp, #0]
     484:	f04f 0301 	mov.w	r3, #1
     488:	f04f 0201 	mov.w	r2, #1
     48c:	f04f 01c3 	mov.w	r1, #195	; 0xc3
     490:	481d      	ldr	r0, [pc, #116]	; (508 <RSA_encrypt+0x178>)
     492:	4478      	add	r0, pc
     494:	f007 ffcc 	bl	8430 <trace_printf>
/home/meander/optee/optee_examples/TEEencrypt/ta/TEEencrypt_ta.c:196
     498:	e01d      	b.n	4d6 <RSA_encrypt+0x146>
/home/meander/optee/optee_examples/TEEencrypt/ta/TEEencrypt_ta.c:198
     49a:	6a3b      	ldr	r3, [r7, #32]
     49c:	9301      	str	r3, [sp, #4]
     49e:	4b1b      	ldr	r3, [pc, #108]	; (50c <RSA_encrypt+0x17c>)
     4a0:	447b      	add	r3, pc
     4a2:	9300      	str	r3, [sp, #0]
     4a4:	f04f 0301 	mov.w	r3, #1
     4a8:	f04f 0203 	mov.w	r2, #3
     4ac:	f04f 01c6 	mov.w	r1, #198	; 0xc6
     4b0:	4817      	ldr	r0, [pc, #92]	; (510 <RSA_encrypt+0x180>)
     4b2:	4478      	add	r0, pc
     4b4:	f007 ffbc 	bl	8430 <trace_printf>
/home/meander/optee/optee_examples/TEEencrypt/ta/TEEencrypt_ta.c:199
     4b8:	4b16      	ldr	r3, [pc, #88]	; (514 <RSA_encrypt+0x184>)
     4ba:	447b      	add	r3, pc
     4bc:	9300      	str	r3, [sp, #0]
     4be:	f04f 0301 	mov.w	r3, #1
     4c2:	f04f 0203 	mov.w	r2, #3
     4c6:	f04f 01c7 	mov.w	r1, #199	; 0xc7
     4ca:	4813      	ldr	r0, [pc, #76]	; (518 <RSA_encrypt+0x188>)
     4cc:	4478      	add	r0, pc
     4ce:	f007 ffaf 	bl	8430 <trace_printf>
/home/meander/optee/optee_examples/TEEencrypt/ta/TEEencrypt_ta.c:200
     4d2:	6afb      	ldr	r3, [r7, #44]	; 0x2c
     4d4:	e005      	b.n	4e2 <RSA_encrypt+0x152>
/home/meander/optee/optee_examples/TEEencrypt/ta/TEEencrypt_ta.c:203
     4d6:	69bb      	ldr	r3, [r7, #24]
     4d8:	681b      	ldr	r3, [r3, #0]
     4da:	4618      	mov	r0, r3
     4dc:	f001 fc00 	bl	1ce0 <TEE_FreeOperation>
/home/meander/optee/optee_examples/TEEencrypt/ta/TEEencrypt_ta.c:205
     4e0:	6afb      	ldr	r3, [r7, #44]	; 0x2c
/home/meander/optee/optee_examples/TEEencrypt/ta/TEEencrypt_ta.c:206 (discriminator 1)
     4e2:	4618      	mov	r0, r3
     4e4:	f107 0730 	add.w	r7, r7, #48	; 0x30
     4e8:	46bd      	mov	sp, r7
     4ea:	bd80      	pop	{r7, pc}
     4ec:	0000e924 	.word	0x0000e924
     4f0:	0000ebe2 	.word	0x0000ebe2
     4f4:	0000e926 	.word	0x0000e926
     4f8:	0000ebac 	.word	0x0000ebac
     4fc:	0000e92e 	.word	0x0000e92e
     500:	0000eb8c 	.word	0x0000eb8c
     504:	0000e900 	.word	0x0000e900
     508:	0000eb46 	.word	0x0000eb46
     50c:	0000e90c 	.word	0x0000e90c
     510:	0000eb26 	.word	0x0000eb26
     514:	0000e90a 	.word	0x0000e90a
     518:	0000eb0c 	.word	0x0000eb0c

0000051c <RSA_decrypt>:
RSA_decrypt():
/home/meander/optee/optee_examples/TEEencrypt/ta/TEEencrypt_ta.c:208
     51c:	e96d 7e02 	strd	r7, lr, [sp, #-8]!
     520:	b090      	sub	sp, #64	; 0x40
     522:	af04      	add	r7, sp, #16
     524:	60f8      	str	r0, [r7, #12]
     526:	60b9      	str	r1, [r7, #8]
     528:	607a      	str	r2, [r7, #4]
/home/meander/optee/optee_examples/TEEencrypt/ta/TEEencrypt_ta.c:210
     52a:	f44f 7398 	mov.w	r3, #304	; 0x130
     52e:	f2c6 0300 	movt	r3, #24576	; 0x6000
     532:	62bb      	str	r3, [r7, #40]	; 0x28
/home/meander/optee/optee_examples/TEEencrypt/ta/TEEencrypt_ta.c:211
     534:	687b      	ldr	r3, [r7, #4]
     536:	f103 0308 	add.w	r3, r3, #8
     53a:	681b      	ldr	r3, [r3, #0]
     53c:	627b      	str	r3, [r7, #36]	; 0x24
/home/meander/optee/optee_examples/TEEencrypt/ta/TEEencrypt_ta.c:212
     53e:	687b      	ldr	r3, [r7, #4]
     540:	f103 0308 	add.w	r3, r3, #8
     544:	685b      	ldr	r3, [r3, #4]
     546:	617b      	str	r3, [r7, #20]
/home/meander/optee/optee_examples/TEEencrypt/ta/TEEencrypt_ta.c:213
     548:	687b      	ldr	r3, [r7, #4]
     54a:	681b      	ldr	r3, [r3, #0]
     54c:	623b      	str	r3, [r7, #32]
/home/meander/optee/optee_examples/TEEencrypt/ta/TEEencrypt_ta.c:214
     54e:	687b      	ldr	r3, [r7, #4]
     550:	685b      	ldr	r3, [r3, #4]
     552:	61fb      	str	r3, [r7, #28]
/home/meander/optee/optee_examples/TEEencrypt/ta/TEEencrypt_ta.c:215
     554:	68fb      	ldr	r3, [r7, #12]
     556:	61bb      	str	r3, [r7, #24]
/home/meander/optee/optee_examples/TEEencrypt/ta/TEEencrypt_ta.c:217
     558:	68b8      	ldr	r0, [r7, #8]
     55a:	f7ff fe87 	bl	26c <check_params>
     55e:	4603      	mov	r3, r0
     560:	2b00      	cmp	r3, #0
     562:	d004      	beq.n	56e <RSA_decrypt+0x52>
/home/meander/optee/optee_examples/TEEencrypt/ta/TEEencrypt_ta.c:218
     564:	f04f 0306 	mov.w	r3, #6
     568:	f6cf 73ff 	movt	r3, #65535	; 0xffff
     56c:	e07f      	b.n	66e <RSA_decrypt+0x152>
/home/meander/optee/optee_examples/TEEencrypt/ta/TEEencrypt_ta.c:220
     56e:	4b42      	ldr	r3, [pc, #264]	; (678 <RSA_decrypt+0x15c>)
     570:	447b      	add	r3, pc
     572:	9300      	str	r3, [sp, #0]
     574:	f04f 0301 	mov.w	r3, #1
     578:	f04f 0203 	mov.w	r2, #3
     57c:	f04f 01dc 	mov.w	r1, #220	; 0xdc
     580:	483e      	ldr	r0, [pc, #248]	; (67c <RSA_decrypt+0x160>)
     582:	4478      	add	r0, pc
     584:	f007 ff54 	bl	8430 <trace_printf>
/home/meander/optee/optee_examples/TEEencrypt/ta/TEEencrypt_ta.c:221
     588:	69b8      	ldr	r0, [r7, #24]
     58a:	69bb      	ldr	r3, [r7, #24]
     58c:	685b      	ldr	r3, [r3, #4]
     58e:	f04f 0201 	mov.w	r2, #1
     592:	6ab9      	ldr	r1, [r7, #40]	; 0x28
     594:	f7ff fdec 	bl	170 <prepare_rsa_operation>
     598:	62f8      	str	r0, [r7, #44]	; 0x2c
/home/meander/optee/optee_examples/TEEencrypt/ta/TEEencrypt_ta.c:222
     59a:	6afb      	ldr	r3, [r7, #44]	; 0x2c
     59c:	2b00      	cmp	r3, #0
     59e:	d00f      	beq.n	5c0 <RSA_decrypt+0xa4>
/home/meander/optee/optee_examples/TEEencrypt/ta/TEEencrypt_ta.c:223
     5a0:	6afb      	ldr	r3, [r7, #44]	; 0x2c
     5a2:	9301      	str	r3, [sp, #4]
     5a4:	4b36      	ldr	r3, [pc, #216]	; (680 <RSA_decrypt+0x164>)
     5a6:	447b      	add	r3, pc
     5a8:	9300      	str	r3, [sp, #0]
     5aa:	f04f 0301 	mov.w	r3, #1
     5ae:	f04f 0201 	mov.w	r2, #1
     5b2:	f04f 01df 	mov.w	r1, #223	; 0xdf
     5b6:	4833      	ldr	r0, [pc, #204]	; (684 <RSA_decrypt+0x168>)
     5b8:	4478      	add	r0, pc
     5ba:	f007 ff39 	bl	8430 <trace_printf>
/home/meander/optee/optee_examples/TEEencrypt/ta/TEEencrypt_ta.c:224
     5be:	e050      	b.n	662 <RSA_decrypt+0x146>
/home/meander/optee/optee_examples/TEEencrypt/ta/TEEencrypt_ta.c:227
     5c0:	6a3b      	ldr	r3, [r7, #32]
     5c2:	9301      	str	r3, [sp, #4]
     5c4:	4b30      	ldr	r3, [pc, #192]	; (688 <RSA_decrypt+0x16c>)
     5c6:	447b      	add	r3, pc
     5c8:	9300      	str	r3, [sp, #0]
     5ca:	f04f 0301 	mov.w	r3, #1
     5ce:	f04f 0203 	mov.w	r2, #3
     5d2:	f04f 01e3 	mov.w	r1, #227	; 0xe3
     5d6:	482d      	ldr	r0, [pc, #180]	; (68c <RSA_decrypt+0x170>)
     5d8:	4478      	add	r0, pc
     5da:	f007 ff29 	bl	8430 <trace_printf>
/home/meander/optee/optee_examples/TEEencrypt/ta/TEEencrypt_ta.c:228
     5de:	69bb      	ldr	r3, [r7, #24]
     5e0:	6818      	ldr	r0, [r3, #0]
     5e2:	f107 0314 	add.w	r3, r7, #20
     5e6:	9302      	str	r3, [sp, #8]
     5e8:	6a7b      	ldr	r3, [r7, #36]	; 0x24
     5ea:	9301      	str	r3, [sp, #4]
     5ec:	69fb      	ldr	r3, [r7, #28]
     5ee:	9300      	str	r3, [sp, #0]
     5f0:	6a3b      	ldr	r3, [r7, #32]
     5f2:	f04f 0200 	mov.w	r2, #0
     5f6:	f04f 0100 	mov.w	r1, #0
     5fa:	f003 f93a 	bl	3872 <TEE_AsymmetricDecrypt>
     5fe:	62f8      	str	r0, [r7, #44]	; 0x2c
/home/meander/optee/optee_examples/TEEencrypt/ta/TEEencrypt_ta.c:230
     600:	6afb      	ldr	r3, [r7, #44]	; 0x2c
     602:	2b00      	cmp	r3, #0
     604:	d00f      	beq.n	626 <RSA_decrypt+0x10a>
/home/meander/optee/optee_examples/TEEencrypt/ta/TEEencrypt_ta.c:231
     606:	6afb      	ldr	r3, [r7, #44]	; 0x2c
     608:	9301      	str	r3, [sp, #4]
     60a:	4b21      	ldr	r3, [pc, #132]	; (690 <RSA_decrypt+0x174>)
     60c:	447b      	add	r3, pc
     60e:	9300      	str	r3, [sp, #0]
     610:	f04f 0301 	mov.w	r3, #1
     614:	f04f 0201 	mov.w	r2, #1
     618:	f04f 01e7 	mov.w	r1, #231	; 0xe7
     61c:	481d      	ldr	r0, [pc, #116]	; (694 <RSA_decrypt+0x178>)
     61e:	4478      	add	r0, pc
     620:	f007 ff06 	bl	8430 <trace_printf>
/home/meander/optee/optee_examples/TEEencrypt/ta/TEEencrypt_ta.c:232
     624:	e01d      	b.n	662 <RSA_decrypt+0x146>
/home/meander/optee/optee_examples/TEEencrypt/ta/TEEencrypt_ta.c:234
     626:	6a7b      	ldr	r3, [r7, #36]	; 0x24
     628:	9301      	str	r3, [sp, #4]
     62a:	4b1b      	ldr	r3, [pc, #108]	; (698 <RSA_decrypt+0x17c>)
     62c:	447b      	add	r3, pc
     62e:	9300      	str	r3, [sp, #0]
     630:	f04f 0301 	mov.w	r3, #1
     634:	f04f 0203 	mov.w	r2, #3
     638:	f04f 01ea 	mov.w	r1, #234	; 0xea
     63c:	4817      	ldr	r0, [pc, #92]	; (69c <RSA_decrypt+0x180>)
     63e:	4478      	add	r0, pc
     640:	f007 fef6 	bl	8430 <trace_printf>
/home/meander/optee/optee_examples/TEEencrypt/ta/TEEencrypt_ta.c:235
     644:	4b16      	ldr	r3, [pc, #88]	; (6a0 <RSA_decrypt+0x184>)
     646:	447b      	add	r3, pc
     648:	9300      	str	r3, [sp, #0]
     64a:	f04f 0301 	mov.w	r3, #1
     64e:	f04f 0203 	mov.w	r2, #3
     652:	f04f 01eb 	mov.w	r1, #235	; 0xeb
     656:	4813      	ldr	r0, [pc, #76]	; (6a4 <RSA_decrypt+0x188>)
     658:	4478      	add	r0, pc
     65a:	f007 fee9 	bl	8430 <trace_printf>
/home/meander/optee/optee_examples/TEEencrypt/ta/TEEencrypt_ta.c:236
     65e:	6afb      	ldr	r3, [r7, #44]	; 0x2c
     660:	e005      	b.n	66e <RSA_decrypt+0x152>
/home/meander/optee/optee_examples/TEEencrypt/ta/TEEencrypt_ta.c:239
     662:	69bb      	ldr	r3, [r7, #24]
     664:	681b      	ldr	r3, [r3, #0]
     666:	4618      	mov	r0, r3
     668:	f001 fb3a 	bl	1ce0 <TEE_FreeOperation>
/home/meander/optee/optee_examples/TEEencrypt/ta/TEEencrypt_ta.c:241
     66c:	6afb      	ldr	r3, [r7, #44]	; 0x2c
/home/meander/optee/optee_examples/TEEencrypt/ta/TEEencrypt_ta.c:242 (discriminator 1)
     66e:	4618      	mov	r0, r3
     670:	f107 0730 	add.w	r7, r7, #48	; 0x30
     674:	46bd      	mov	sp, r7
     676:	bd80      	pop	{r7, pc}
     678:	0000e884 	.word	0x0000e884
     67c:	0000ea62 	.word	0x0000ea62
     680:	0000e79a 	.word	0x0000e79a
     684:	0000ea2c 	.word	0x0000ea2c
     688:	0000e866 	.word	0x0000e866
     68c:	0000ea0c 	.word	0x0000ea0c
     690:	0000e838 	.word	0x0000e838
     694:	0000e9c6 	.word	0x0000e9c6
     698:	0000e844 	.word	0x0000e844
     69c:	0000e9a6 	.word	0x0000e9a6
     6a0:	0000e842 	.word	0x0000e842
     6a4:	0000e98c 	.word	0x0000e98c

000006a8 <enc_value>:
enc_value():
/home/meander/optee/optee_examples/TEEencrypt/ta/TEEencrypt_ta.c:245
     6a8:	e96d 7e02 	strd	r7, lr, [sp, #-8]!
     6ac:	b0a2      	sub	sp, #136	; 0x88
     6ae:	af04      	add	r7, sp, #16
     6b0:	6078      	str	r0, [r7, #4]
/home/meander/optee/optee_examples/TEEencrypt/ta/TEEencrypt_ta.c:246
     6b2:	687b      	ldr	r3, [r7, #4]
     6b4:	681b      	ldr	r3, [r3, #0]
     6b6:	673b      	str	r3, [r7, #112]	; 0x70
/home/meander/optee/optee_examples/TEEencrypt/ta/TEEencrypt_ta.c:247
     6b8:	687b      	ldr	r3, [r7, #4]
     6ba:	681b      	ldr	r3, [r3, #0]
     6bc:	4618      	mov	r0, r3
     6be:	f00a ffe0 	bl	b682 <strlen>
     6c2:	4603      	mov	r3, r0
     6c4:	66fb      	str	r3, [r7, #108]	; 0x6c
/home/meander/optee/optee_examples/TEEencrypt/ta/TEEencrypt_ta.c:248
     6c6:	f107 0310 	add.w	r3, r7, #16
     6ca:	f04f 0256 	mov.w	r2, #86	; 0x56
     6ce:	f04f 0100 	mov.w	r1, #0
     6d2:	4618      	mov	r0, r3
     6d4:	f00a ff47 	bl	b566 <memset>
/home/meander/optee/optee_examples/TEEencrypt/ta/TEEencrypt_ta.c:249
     6d8:	f04f 0300 	mov.w	r3, #0
     6dc:	60fb      	str	r3, [r7, #12]
/home/meander/optee/optee_examples/TEEencrypt/ta/TEEencrypt_ta.c:250
     6de:	f107 030c 	add.w	r3, r7, #12
     6e2:	66bb      	str	r3, [r7, #104]	; 0x68
/home/meander/optee/optee_examples/TEEencrypt/ta/TEEencrypt_ta.c:252
     6e4:	4b98      	ldr	r3, [pc, #608]	; (948 <enc_value+0x2a0>)
     6e6:	447b      	add	r3, pc
     6e8:	9300      	str	r3, [sp, #0]
     6ea:	f04f 0301 	mov.w	r3, #1
     6ee:	f04f 0203 	mov.w	r2, #3
     6f2:	f04f 01fc 	mov.w	r1, #252	; 0xfc
     6f6:	4895      	ldr	r0, [pc, #596]	; (94c <enc_value+0x2a4>)
     6f8:	4478      	add	r0, pc
     6fa:	f007 fe99 	bl	8430 <trace_printf>
/home/meander/optee/optee_examples/TEEencrypt/ta/TEEencrypt_ta.c:253
     6fe:	6efb      	ldr	r3, [r7, #108]	; 0x6c
     700:	9302      	str	r3, [sp, #8]
     702:	6f3b      	ldr	r3, [r7, #112]	; 0x70
     704:	9301      	str	r3, [sp, #4]
     706:	4b92      	ldr	r3, [pc, #584]	; (950 <enc_value+0x2a8>)
     708:	447b      	add	r3, pc
     70a:	9300      	str	r3, [sp, #0]
     70c:	f04f 0301 	mov.w	r3, #1
     710:	f04f 0203 	mov.w	r2, #3
     714:	f04f 01fd 	mov.w	r1, #253	; 0xfd
     718:	488e      	ldr	r0, [pc, #568]	; (954 <enc_value+0x2ac>)
     71a:	4478      	add	r0, pc
     71c:	f007 fe88 	bl	8430 <trace_printf>
/home/meander/optee/optee_examples/TEEencrypt/ta/TEEencrypt_ta.c:254
     720:	6efa      	ldr	r2, [r7, #108]	; 0x6c
     722:	f107 0310 	add.w	r3, r7, #16
     726:	6f39      	ldr	r1, [r7, #112]	; 0x70
     728:	4618      	mov	r0, r3
     72a:	f00a fe04 	bl	b336 <memcpy>
/home/meander/optee/optee_examples/TEEencrypt/ta/TEEencrypt_ta.c:255
     72e:	f04f 0101 	mov.w	r1, #1
     732:	6eb8      	ldr	r0, [r7, #104]	; 0x68
     734:	f003 fbac 	bl	3e90 <TEE_GenerateRandom>
/home/meander/optee/optee_examples/TEEencrypt/ta/TEEencrypt_ta.c:256
     738:	68fa      	ldr	r2, [r7, #12]
     73a:	f64e 434f 	movw	r3, #60495	; 0xec4f
     73e:	f6c4 63c4 	movt	r3, #20164	; 0x4ec4
     742:	fb83 1302 	smull	r1, r3, r3, r2
     746:	ea4f 01e3 	mov.w	r1, r3, asr #3
     74a:	ea4f 73e2 	mov.w	r3, r2, asr #31
     74e:	eba1 0303 	sub.w	r3, r1, r3
     752:	f04f 011a 	mov.w	r1, #26
     756:	fb01 f303 	mul.w	r3, r1, r3
     75a:	eba2 0303 	sub.w	r3, r2, r3
     75e:	60fb      	str	r3, [r7, #12]
/home/meander/optee/optee_examples/TEEencrypt/ta/TEEencrypt_ta.c:258
     760:	f04f 0300 	mov.w	r3, #0
     764:	677b      	str	r3, [r7, #116]	; 0x74
     766:	e06a      	b.n	83e <enc_value+0x196>
/home/meander/optee/optee_examples/TEEencrypt/ta/TEEencrypt_ta.c:259
     768:	f107 0210 	add.w	r2, r7, #16
     76c:	6f7b      	ldr	r3, [r7, #116]	; 0x74
     76e:	4413      	add	r3, r2
     770:	781b      	ldrb	r3, [r3, #0]
     772:	2b40      	cmp	r3, #64	; 0x40
     774:	d92c      	bls.n	7d0 <enc_value+0x128>
/home/meander/optee/optee_examples/TEEencrypt/ta/TEEencrypt_ta.c:259 (discriminator 1)
     776:	f107 0210 	add.w	r2, r7, #16
     77a:	6f7b      	ldr	r3, [r7, #116]	; 0x74
     77c:	4413      	add	r3, r2
     77e:	781b      	ldrb	r3, [r3, #0]
     780:	2b5a      	cmp	r3, #90	; 0x5a
     782:	d825      	bhi.n	7d0 <enc_value+0x128>
/home/meander/optee/optee_examples/TEEencrypt/ta/TEEencrypt_ta.c:260
     784:	f107 0210 	add.w	r2, r7, #16
     788:	6f7b      	ldr	r3, [r7, #116]	; 0x74
     78a:	4413      	add	r3, r2
     78c:	781b      	ldrb	r3, [r3, #0]
     78e:	f1a3 0241 	sub.w	r2, r3, #65	; 0x41
     792:	68fb      	ldr	r3, [r7, #12]
     794:	4413      	add	r3, r2
     796:	f64e 424f 	movw	r2, #60495	; 0xec4f
     79a:	f6c4 62c4 	movt	r2, #20164	; 0x4ec4
     79e:	fb82 1203 	smull	r1, r2, r2, r3
     7a2:	ea4f 01e2 	mov.w	r1, r2, asr #3
     7a6:	ea4f 72e3 	mov.w	r2, r3, asr #31
     7aa:	eba1 0202 	sub.w	r2, r1, r2
     7ae:	f04f 011a 	mov.w	r1, #26
     7b2:	fb01 f202 	mul.w	r2, r1, r2
     7b6:	eba3 0202 	sub.w	r2, r3, r2
     7ba:	b2d3      	uxtb	r3, r2
     7bc:	f103 0341 	add.w	r3, r3, #65	; 0x41
     7c0:	b2d9      	uxtb	r1, r3
     7c2:	f107 0210 	add.w	r2, r7, #16
     7c6:	6f7b      	ldr	r3, [r7, #116]	; 0x74
     7c8:	4413      	add	r3, r2
     7ca:	460a      	mov	r2, r1
     7cc:	701a      	strb	r2, [r3, #0]
     7ce:	e032      	b.n	836 <enc_value+0x18e>
/home/meander/optee/optee_examples/TEEencrypt/ta/TEEencrypt_ta.c:262
     7d0:	f107 0210 	add.w	r2, r7, #16
     7d4:	6f7b      	ldr	r3, [r7, #116]	; 0x74
     7d6:	4413      	add	r3, r2
     7d8:	781b      	ldrb	r3, [r3, #0]
     7da:	2b60      	cmp	r3, #96	; 0x60
     7dc:	d92b      	bls.n	836 <enc_value+0x18e>
/home/meander/optee/optee_examples/TEEencrypt/ta/TEEencrypt_ta.c:262 (discriminator 1)
     7de:	f107 0210 	add.w	r2, r7, #16
     7e2:	6f7b      	ldr	r3, [r7, #116]	; 0x74
     7e4:	4413      	add	r3, r2
     7e6:	781b      	ldrb	r3, [r3, #0]
     7e8:	2b7a      	cmp	r3, #122	; 0x7a
     7ea:	d824      	bhi.n	836 <enc_value+0x18e>
/home/meander/optee/optee_examples/TEEencrypt/ta/TEEencrypt_ta.c:263
     7ec:	f107 0210 	add.w	r2, r7, #16
     7f0:	6f7b      	ldr	r3, [r7, #116]	; 0x74
     7f2:	4413      	add	r3, r2
     7f4:	781b      	ldrb	r3, [r3, #0]
     7f6:	f1a3 0261 	sub.w	r2, r3, #97	; 0x61
     7fa:	68fb      	ldr	r3, [r7, #12]
     7fc:	4413      	add	r3, r2
     7fe:	f64e 424f 	movw	r2, #60495	; 0xec4f
     802:	f6c4 62c4 	movt	r2, #20164	; 0x4ec4
     806:	fb82 1203 	smull	r1, r2, r2, r3
     80a:	ea4f 01e2 	mov.w	r1, r2, asr #3
     80e:	ea4f 72e3 	mov.w	r2, r3, asr #31
     812:	eba1 0202 	sub.w	r2, r1, r2
     816:	f04f 011a 	mov.w	r1, #26
     81a:	fb01 f202 	mul.w	r2, r1, r2
     81e:	eba3 0202 	sub.w	r2, r3, r2
     822:	b2d3      	uxtb	r3, r2
     824:	f103 0361 	add.w	r3, r3, #97	; 0x61
     828:	b2d9      	uxtb	r1, r3
     82a:	f107 0210 	add.w	r2, r7, #16
     82e:	6f7b      	ldr	r3, [r7, #116]	; 0x74
     830:	4413      	add	r3, r2
     832:	460a      	mov	r2, r1
     834:	701a      	strb	r2, [r3, #0]
/home/meander/optee/optee_examples/TEEencrypt/ta/TEEencrypt_ta.c:258 (discriminator 2)
     836:	6f7b      	ldr	r3, [r7, #116]	; 0x74
     838:	f103 0301 	add.w	r3, r3, #1
     83c:	677b      	str	r3, [r7, #116]	; 0x74
/home/meander/optee/optee_examples/TEEencrypt/ta/TEEencrypt_ta.c:258 (discriminator 1)
     83e:	6f7a      	ldr	r2, [r7, #116]	; 0x74
     840:	6efb      	ldr	r3, [r7, #108]	; 0x6c
     842:	429a      	cmp	r2, r3
     844:	db90      	blt.n	768 <enc_value+0xc0>
/home/meander/optee/optee_examples/TEEencrypt/ta/TEEencrypt_ta.c:266
     846:	68fb      	ldr	r3, [r7, #12]
     848:	9302      	str	r3, [sp, #8]
     84a:	f107 0310 	add.w	r3, r7, #16
     84e:	9301      	str	r3, [sp, #4]
     850:	4b41      	ldr	r3, [pc, #260]	; (958 <enc_value+0x2b0>)
     852:	447b      	add	r3, pc
     854:	9300      	str	r3, [sp, #0]
     856:	f04f 0301 	mov.w	r3, #1
     85a:	f04f 0203 	mov.w	r2, #3
     85e:	f44f 7185 	mov.w	r1, #266	; 0x10a
     862:	483e      	ldr	r0, [pc, #248]	; (95c <enc_value+0x2b4>)
     864:	4478      	add	r0, pc
     866:	f007 fde3 	bl	8430 <trace_printf>
/home/meander/optee/optee_examples/TEEencrypt/ta/TEEencrypt_ta.c:267
     86a:	6efa      	ldr	r2, [r7, #108]	; 0x6c
     86c:	f107 0310 	add.w	r3, r7, #16
     870:	4619      	mov	r1, r3
     872:	6f38      	ldr	r0, [r7, #112]	; 0x70
     874:	f00a fd5f 	bl	b336 <memcpy>
/home/meander/optee/optee_examples/TEEencrypt/ta/TEEencrypt_ta.c:269
     878:	68fa      	ldr	r2, [r7, #12]
     87a:	4b39      	ldr	r3, [pc, #228]	; (960 <enc_value+0x2b8>)
     87c:	447b      	add	r3, pc
     87e:	681b      	ldr	r3, [r3, #0]
     880:	441a      	add	r2, r3
     882:	f64e 434f 	movw	r3, #60495	; 0xec4f
     886:	f6c4 63c4 	movt	r3, #20164	; 0x4ec4
     88a:	fb83 1302 	smull	r1, r3, r3, r2
     88e:	ea4f 01e3 	mov.w	r1, r3, asr #3
     892:	ea4f 73e2 	mov.w	r3, r2, asr #31
     896:	eba1 0303 	sub.w	r3, r1, r3
     89a:	f04f 011a 	mov.w	r1, #26
     89e:	fb01 f303 	mul.w	r3, r1, r3
     8a2:	eba2 0303 	sub.w	r3, r2, r3
     8a6:	60fb      	str	r3, [r7, #12]
/home/meander/optee/optee_examples/TEEencrypt/ta/TEEencrypt_ta.c:270
     8a8:	687b      	ldr	r3, [r7, #4]
     8aa:	f103 0308 	add.w	r3, r3, #8
     8ae:	6819      	ldr	r1, [r3, #0]
     8b0:	68fa      	ldr	r2, [r7, #12]
     8b2:	f246 6367 	movw	r3, #26215	; 0x6667
     8b6:	f2c6 6366 	movt	r3, #26214	; 0x6666
     8ba:	fb83 0302 	smull	r0, r3, r3, r2
     8be:	ea4f 00a3 	mov.w	r0, r3, asr #2
     8c2:	ea4f 73e2 	mov.w	r3, r2, asr #31
     8c6:	eba0 0303 	sub.w	r3, r0, r3
     8ca:	b2db      	uxtb	r3, r3
     8cc:	f103 0330 	add.w	r3, r3, #48	; 0x30
     8d0:	b2db      	uxtb	r3, r3
     8d2:	700b      	strb	r3, [r1, #0]
/home/meander/optee/optee_examples/TEEencrypt/ta/TEEencrypt_ta.c:271
     8d4:	687b      	ldr	r3, [r7, #4]
     8d6:	f103 0308 	add.w	r3, r3, #8
     8da:	681b      	ldr	r3, [r3, #0]
     8dc:	f103 0001 	add.w	r0, r3, #1
     8e0:	68fa      	ldr	r2, [r7, #12]
     8e2:	f246 6367 	movw	r3, #26215	; 0x6667
     8e6:	f2c6 6366 	movt	r3, #26214	; 0x6666
     8ea:	fb83 1302 	smull	r1, r3, r3, r2
     8ee:	ea4f 01a3 	mov.w	r1, r3, asr #2
     8f2:	ea4f 73e2 	mov.w	r3, r2, asr #31
     8f6:	eba1 0103 	sub.w	r1, r1, r3
     8fa:	460b      	mov	r3, r1
     8fc:	ea4f 0383 	mov.w	r3, r3, lsl #2
     900:	440b      	add	r3, r1
     902:	ea4f 0343 	mov.w	r3, r3, lsl #1
     906:	eba2 0103 	sub.w	r1, r2, r3
     90a:	b2cb      	uxtb	r3, r1
     90c:	f103 0330 	add.w	r3, r3, #48	; 0x30
     910:	b2db      	uxtb	r3, r3
     912:	7003      	strb	r3, [r0, #0]
/home/meander/optee/optee_examples/TEEencrypt/ta/TEEencrypt_ta.c:272
     914:	687b      	ldr	r3, [r7, #4]
     916:	f103 0308 	add.w	r3, r3, #8
     91a:	681b      	ldr	r3, [r3, #0]
     91c:	f103 0302 	add.w	r3, r3, #2
     920:	f04f 020a 	mov.w	r2, #10
     924:	701a      	strb	r2, [r3, #0]
/home/meander/optee/optee_examples/TEEencrypt/ta/TEEencrypt_ta.c:273
     926:	687b      	ldr	r3, [r7, #4]
     928:	f103 0308 	add.w	r3, r3, #8
     92c:	681b      	ldr	r3, [r3, #0]
     92e:	f103 0303 	add.w	r3, r3, #3
     932:	f04f 0200 	mov.w	r2, #0
     936:	701a      	strb	r2, [r3, #0]
/home/meander/optee/optee_examples/TEEencrypt/ta/TEEencrypt_ta.c:274
     938:	f04f 0300 	mov.w	r3, #0
/home/meander/optee/optee_examples/TEEencrypt/ta/TEEencrypt_ta.c:275
     93c:	4618      	mov	r0, r3
     93e:	f107 0778 	add.w	r7, r7, #120	; 0x78
     942:	46bd      	mov	sp, r7
     944:	bd80      	pop	{r7, pc}
     946:	bf00      	nop
     948:	0000e7d2 	.word	0x0000e7d2
     94c:	0000e8f8 	.word	0x0000e8f8
     950:	0000e7c0 	.word	0x0000e7c0
     954:	0000e8d6 	.word	0x0000e8d6
     958:	0000e692 	.word	0x0000e692
     95c:	0000e78c 	.word	0x0000e78c
     960:	0001281c 	.word	0x0001281c

00000964 <dec_value>:
dec_value():
/home/meander/optee/optee_examples/TEEencrypt/ta/TEEencrypt_ta.c:278
     964:	e96d 7e02 	strd	r7, lr, [sp, #-8]!
     968:	b0a0      	sub	sp, #128	; 0x80
     96a:	af04      	add	r7, sp, #16
     96c:	6078      	str	r0, [r7, #4]
/home/meander/optee/optee_examples/TEEencrypt/ta/TEEencrypt_ta.c:279
     96e:	687b      	ldr	r3, [r7, #4]
     970:	681b      	ldr	r3, [r3, #0]
     972:	66bb      	str	r3, [r7, #104]	; 0x68
/home/meander/optee/optee_examples/TEEencrypt/ta/TEEencrypt_ta.c:280
     974:	687b      	ldr	r3, [r7, #4]
     976:	681b      	ldr	r3, [r3, #0]
     978:	4618      	mov	r0, r3
     97a:	f00a fe82 	bl	b682 <strlen>
     97e:	4603      	mov	r3, r0
     980:	667b      	str	r3, [r7, #100]	; 0x64
/home/meander/optee/optee_examples/TEEencrypt/ta/TEEencrypt_ta.c:281
     982:	f107 0308 	add.w	r3, r7, #8
     986:	f04f 0256 	mov.w	r2, #86	; 0x56
     98a:	f04f 0100 	mov.w	r1, #0
     98e:	4618      	mov	r0, r3
     990:	f00a fde9 	bl	b566 <memset>
/home/meander/optee/optee_examples/TEEencrypt/ta/TEEencrypt_ta.c:283
     994:	4b82      	ldr	r3, [pc, #520]	; (ba0 <dec_value+0x23c>)
     996:	447b      	add	r3, pc
     998:	9300      	str	r3, [sp, #0]
     99a:	f04f 0301 	mov.w	r3, #1
     99e:	f04f 0203 	mov.w	r2, #3
     9a2:	f240 111b 	movw	r1, #283	; 0x11b
     9a6:	487f      	ldr	r0, [pc, #508]	; (ba4 <dec_value+0x240>)
     9a8:	4478      	add	r0, pc
     9aa:	f007 fd41 	bl	8430 <trace_printf>
/home/meander/optee/optee_examples/TEEencrypt/ta/TEEencrypt_ta.c:284
     9ae:	4b7e      	ldr	r3, [pc, #504]	; (ba8 <dec_value+0x244>)
     9b0:	447b      	add	r3, pc
     9b2:	9300      	str	r3, [sp, #0]
     9b4:	f04f 0301 	mov.w	r3, #1
     9b8:	f04f 0203 	mov.w	r2, #3
     9bc:	f44f 718e 	mov.w	r1, #284	; 0x11c
     9c0:	487a      	ldr	r0, [pc, #488]	; (bac <dec_value+0x248>)
     9c2:	4478      	add	r0, pc
     9c4:	f007 fd34 	bl	8430 <trace_printf>
/home/meander/optee/optee_examples/TEEencrypt/ta/TEEencrypt_ta.c:285
     9c8:	6e7b      	ldr	r3, [r7, #100]	; 0x64
     9ca:	9302      	str	r3, [sp, #8]
     9cc:	6ebb      	ldr	r3, [r7, #104]	; 0x68
     9ce:	9301      	str	r3, [sp, #4]
     9d0:	4b77      	ldr	r3, [pc, #476]	; (bb0 <dec_value+0x24c>)
     9d2:	447b      	add	r3, pc
     9d4:	9300      	str	r3, [sp, #0]
     9d6:	f04f 0301 	mov.w	r3, #1
     9da:	f04f 0203 	mov.w	r2, #3
     9de:	f240 111d 	movw	r1, #285	; 0x11d
     9e2:	4874      	ldr	r0, [pc, #464]	; (bb4 <dec_value+0x250>)
     9e4:	4478      	add	r0, pc
     9e6:	f007 fd23 	bl	8430 <trace_printf>
/home/meander/optee/optee_examples/TEEencrypt/ta/TEEencrypt_ta.c:286
     9ea:	6e7a      	ldr	r2, [r7, #100]	; 0x64
     9ec:	f107 0308 	add.w	r3, r7, #8
     9f0:	6eb9      	ldr	r1, [r7, #104]	; 0x68
     9f2:	4618      	mov	r0, r3
     9f4:	f00a fc9f 	bl	b336 <memcpy>
/home/meander/optee/optee_examples/TEEencrypt/ta/TEEencrypt_ta.c:287
     9f8:	687b      	ldr	r3, [r7, #4]
     9fa:	f103 0308 	add.w	r3, r3, #8
     9fe:	681b      	ldr	r3, [r3, #0]
     a00:	781b      	ldrb	r3, [r3, #0]
     a02:	f1a3 0230 	sub.w	r2, r3, #48	; 0x30
     a06:	4613      	mov	r3, r2
     a08:	ea4f 0383 	mov.w	r3, r3, lsl #2
     a0c:	4413      	add	r3, r2
     a0e:	ea4f 0343 	mov.w	r3, r3, lsl #1
     a12:	461a      	mov	r2, r3
/home/meander/optee/optee_examples/TEEencrypt/ta/TEEencrypt_ta.c:288
     a14:	687b      	ldr	r3, [r7, #4]
     a16:	f103 0308 	add.w	r3, r3, #8
     a1a:	681b      	ldr	r3, [r3, #0]
     a1c:	f103 0301 	add.w	r3, r3, #1
     a20:	781b      	ldrb	r3, [r3, #0]
     a22:	f1a3 0330 	sub.w	r3, r3, #48	; 0x30
/home/meander/optee/optee_examples/TEEencrypt/ta/TEEencrypt_ta.c:287
     a26:	4413      	add	r3, r2
     a28:	663b      	str	r3, [r7, #96]	; 0x60
/home/meander/optee/optee_examples/TEEencrypt/ta/TEEencrypt_ta.c:290
     a2a:	4b63      	ldr	r3, [pc, #396]	; (bb8 <dec_value+0x254>)
     a2c:	447b      	add	r3, pc
     a2e:	681b      	ldr	r3, [r3, #0]
     a30:	6e3a      	ldr	r2, [r7, #96]	; 0x60
     a32:	eba2 0303 	sub.w	r3, r2, r3
     a36:	f103 031a 	add.w	r3, r3, #26
     a3a:	f64e 424f 	movw	r2, #60495	; 0xec4f
     a3e:	f6c4 62c4 	movt	r2, #20164	; 0x4ec4
     a42:	fb82 1203 	smull	r1, r2, r2, r3
     a46:	ea4f 01e2 	mov.w	r1, r2, asr #3
     a4a:	ea4f 72e3 	mov.w	r2, r3, asr #31
     a4e:	eba1 0202 	sub.w	r2, r1, r2
     a52:	f04f 011a 	mov.w	r1, #26
     a56:	fb01 f202 	mul.w	r2, r1, r2
     a5a:	eba3 0302 	sub.w	r3, r3, r2
     a5e:	663b      	str	r3, [r7, #96]	; 0x60
/home/meander/optee/optee_examples/TEEencrypt/ta/TEEencrypt_ta.c:291
     a60:	f04f 0300 	mov.w	r3, #0
     a64:	66fb      	str	r3, [r7, #108]	; 0x6c
     a66:	e070      	b.n	b4a <dec_value+0x1e6>
/home/meander/optee/optee_examples/TEEencrypt/ta/TEEencrypt_ta.c:292
     a68:	f107 0208 	add.w	r2, r7, #8
     a6c:	6efb      	ldr	r3, [r7, #108]	; 0x6c
     a6e:	4413      	add	r3, r2
     a70:	781b      	ldrb	r3, [r3, #0]
     a72:	2b40      	cmp	r3, #64	; 0x40
     a74:	d92f      	bls.n	ad6 <dec_value+0x172>
/home/meander/optee/optee_examples/TEEencrypt/ta/TEEencrypt_ta.c:292 (discriminator 1)
     a76:	f107 0208 	add.w	r2, r7, #8
     a7a:	6efb      	ldr	r3, [r7, #108]	; 0x6c
     a7c:	4413      	add	r3, r2
     a7e:	781b      	ldrb	r3, [r3, #0]
     a80:	2b5a      	cmp	r3, #90	; 0x5a
     a82:	d828      	bhi.n	ad6 <dec_value+0x172>
/home/meander/optee/optee_examples/TEEencrypt/ta/TEEencrypt_ta.c:293
     a84:	f107 0208 	add.w	r2, r7, #8
     a88:	6efb      	ldr	r3, [r7, #108]	; 0x6c
     a8a:	4413      	add	r3, r2
     a8c:	781b      	ldrb	r3, [r3, #0]
     a8e:	f1a3 0241 	sub.w	r2, r3, #65	; 0x41
     a92:	6e3b      	ldr	r3, [r7, #96]	; 0x60
     a94:	eba2 0303 	sub.w	r3, r2, r3
     a98:	f103 031a 	add.w	r3, r3, #26
     a9c:	f64e 424f 	movw	r2, #60495	; 0xec4f
     aa0:	f6c4 62c4 	movt	r2, #20164	; 0x4ec4
     aa4:	fb82 1203 	smull	r1, r2, r2, r3
     aa8:	ea4f 01e2 	mov.w	r1, r2, asr #3
     aac:	ea4f 72e3 	mov.w	r2, r3, asr #31
     ab0:	eba1 0202 	sub.w	r2, r1, r2
     ab4:	f04f 011a 	mov.w	r1, #26
     ab8:	fb01 f202 	mul.w	r2, r1, r2
     abc:	eba3 0202 	sub.w	r2, r3, r2
     ac0:	b2d3      	uxtb	r3, r2
     ac2:	f103 0341 	add.w	r3, r3, #65	; 0x41
     ac6:	b2d9      	uxtb	r1, r3
     ac8:	f107 0208 	add.w	r2, r7, #8
     acc:	6efb      	ldr	r3, [r7, #108]	; 0x6c
     ace:	4413      	add	r3, r2
     ad0:	460a      	mov	r2, r1
     ad2:	701a      	strb	r2, [r3, #0]
     ad4:	e035      	b.n	b42 <dec_value+0x1de>
/home/meander/optee/optee_examples/TEEencrypt/ta/TEEencrypt_ta.c:295
     ad6:	f107 0208 	add.w	r2, r7, #8
     ada:	6efb      	ldr	r3, [r7, #108]	; 0x6c
     adc:	4413      	add	r3, r2
     ade:	781b      	ldrb	r3, [r3, #0]
     ae0:	2b60      	cmp	r3, #96	; 0x60
     ae2:	d92e      	bls.n	b42 <dec_value+0x1de>
/home/meander/optee/optee_examples/TEEencrypt/ta/TEEencrypt_ta.c:295 (discriminator 1)
     ae4:	f107 0208 	add.w	r2, r7, #8
     ae8:	6efb      	ldr	r3, [r7, #108]	; 0x6c
     aea:	4413      	add	r3, r2
     aec:	781b      	ldrb	r3, [r3, #0]
     aee:	2b7a      	cmp	r3, #122	; 0x7a
     af0:	d827      	bhi.n	b42 <dec_value+0x1de>
/home/meander/optee/optee_examples/TEEencrypt/ta/TEEencrypt_ta.c:296
     af2:	f107 0208 	add.w	r2, r7, #8
     af6:	6efb      	ldr	r3, [r7, #108]	; 0x6c
     af8:	4413      	add	r3, r2
     afa:	781b      	ldrb	r3, [r3, #0]
     afc:	f1a3 0261 	sub.w	r2, r3, #97	; 0x61
     b00:	6e3b      	ldr	r3, [r7, #96]	; 0x60
     b02:	eba2 0303 	sub.w	r3, r2, r3
     b06:	f103 031a 	add.w	r3, r3, #26
     b0a:	f64e 424f 	movw	r2, #60495	; 0xec4f
     b0e:	f6c4 62c4 	movt	r2, #20164	; 0x4ec4
     b12:	fb82 1203 	smull	r1, r2, r2, r3
     b16:	ea4f 01e2 	mov.w	r1, r2, asr #3
     b1a:	ea4f 72e3 	mov.w	r2, r3, asr #31
     b1e:	eba1 0202 	sub.w	r2, r1, r2
     b22:	f04f 011a 	mov.w	r1, #26
     b26:	fb01 f202 	mul.w	r2, r1, r2
     b2a:	eba3 0202 	sub.w	r2, r3, r2
     b2e:	b2d3      	uxtb	r3, r2
     b30:	f103 0361 	add.w	r3, r3, #97	; 0x61
     b34:	b2d9      	uxtb	r1, r3
     b36:	f107 0208 	add.w	r2, r7, #8
     b3a:	6efb      	ldr	r3, [r7, #108]	; 0x6c
     b3c:	4413      	add	r3, r2
     b3e:	460a      	mov	r2, r1
     b40:	701a      	strb	r2, [r3, #0]
/home/meander/optee/optee_examples/TEEencrypt/ta/TEEencrypt_ta.c:291 (discriminator 2)
     b42:	6efb      	ldr	r3, [r7, #108]	; 0x6c
     b44:	f103 0301 	add.w	r3, r3, #1
     b48:	66fb      	str	r3, [r7, #108]	; 0x6c
/home/meander/optee/optee_examples/TEEencrypt/ta/TEEencrypt_ta.c:291 (discriminator 1)
     b4a:	6efa      	ldr	r2, [r7, #108]	; 0x6c
     b4c:	6e7b      	ldr	r3, [r7, #100]	; 0x64
     b4e:	429a      	cmp	r2, r3
     b50:	db8a      	blt.n	a68 <dec_value+0x104>
/home/meander/optee/optee_examples/TEEencrypt/ta/TEEencrypt_ta.c:299
     b52:	6e3b      	ldr	r3, [r7, #96]	; 0x60
     b54:	9302      	str	r3, [sp, #8]
     b56:	f107 0308 	add.w	r3, r7, #8
     b5a:	9301      	str	r3, [sp, #4]
     b5c:	4b17      	ldr	r3, [pc, #92]	; (bbc <dec_value+0x258>)
     b5e:	447b      	add	r3, pc
     b60:	9300      	str	r3, [sp, #0]
     b62:	f04f 0301 	mov.w	r3, #1
     b66:	f04f 0203 	mov.w	r2, #3
     b6a:	f240 112b 	movw	r1, #299	; 0x12b
     b6e:	4814      	ldr	r0, [pc, #80]	; (bc0 <dec_value+0x25c>)
     b70:	4478      	add	r0, pc
     b72:	f007 fc5d 	bl	8430 <trace_printf>
/home/meander/optee/optee_examples/TEEencrypt/ta/TEEencrypt_ta.c:300
     b76:	6e7a      	ldr	r2, [r7, #100]	; 0x64
     b78:	f107 0308 	add.w	r3, r7, #8
     b7c:	4619      	mov	r1, r3
     b7e:	6eb8      	ldr	r0, [r7, #104]	; 0x68
     b80:	f00a fbd9 	bl	b336 <memcpy>
/home/meander/optee/optee_examples/TEEencrypt/ta/TEEencrypt_ta.c:301
     b84:	687b      	ldr	r3, [r7, #4]
     b86:	f103 0308 	add.w	r3, r3, #8
     b8a:	681b      	ldr	r3, [r3, #0]
     b8c:	f04f 0200 	mov.w	r2, #0
     b90:	701a      	strb	r2, [r3, #0]
/home/meander/optee/optee_examples/TEEencrypt/ta/TEEencrypt_ta.c:302
     b92:	f04f 0300 	mov.w	r3, #0
/home/meander/optee/optee_examples/TEEencrypt/ta/TEEencrypt_ta.c:303
     b96:	4618      	mov	r0, r3
     b98:	f107 0770 	add.w	r7, r7, #112	; 0x70
     b9c:	46bd      	mov	sp, r7
     b9e:	bd80      	pop	{r7, pc}
     ba0:	0000e1d2 	.word	0x0000e1d2
     ba4:	0000e654 	.word	0x0000e654
     ba8:	0000e550 	.word	0x0000e550
     bac:	0000e63a 	.word	0x0000e63a
     bb0:	0000e53e 	.word	0x0000e53e
     bb4:	0000e618 	.word	0x0000e618
     bb8:	0001266c 	.word	0x0001266c
     bbc:	0000e3ce 	.word	0x0000e3ce
     bc0:	0000e48c 	.word	0x0000e48c

00000bc4 <TA_InvokeCommandEntryPoint>:
TA_InvokeCommandEntryPoint():
/home/meander/optee/optee_examples/TEEencrypt/ta/TEEencrypt_ta.c:312
     bc4:	e96d 7e02 	strd	r7, lr, [sp, #-8]!
     bc8:	b084      	sub	sp, #16
     bca:	af00      	add	r7, sp, #0
     bcc:	60f8      	str	r0, [r7, #12]
     bce:	60b9      	str	r1, [r7, #8]
     bd0:	607a      	str	r2, [r7, #4]
     bd2:	603b      	str	r3, [r7, #0]
/home/meander/optee/optee_examples/TEEencrypt/ta/TEEencrypt_ta.c:314
     bd4:	4b23      	ldr	r3, [pc, #140]	; (c64 <TA_InvokeCommandEntryPoint+0xa0>)
     bd6:	447b      	add	r3, pc
     bd8:	461a      	mov	r2, r3
     bda:	f04f 0311 	mov.w	r3, #17
     bde:	6013      	str	r3, [r2, #0]
/home/meander/optee/optee_examples/TEEencrypt/ta/TEEencrypt_ta.c:316
     be0:	68bb      	ldr	r3, [r7, #8]
     be2:	2b06      	cmp	r3, #6
     be4:	d834      	bhi.n	c50 <TA_InvokeCommandEntryPoint+0x8c>
     be6:	a202      	add	r2, pc, #8	; (adr r2, bf0 <TA_InvokeCommandEntryPoint+0x2c>)
     be8:	f852 3023 	ldr.w	r3, [r2, r3, lsl #2]
     bec:	441a      	add	r2, r3
     bee:	4710      	bx	r2
     bf0:	0000001d 	.word	0x0000001d
     bf4:	00000027 	.word	0x00000027
     bf8:	00000031 	.word	0x00000031
     bfc:	00000061 	.word	0x00000061
     c00:	0000003b 	.word	0x0000003b
     c04:	00000045 	.word	0x00000045
     c08:	00000053 	.word	0x00000053
/home/meander/optee/optee_examples/TEEencrypt/ta/TEEencrypt_ta.c:318
     c0c:	6838      	ldr	r0, [r7, #0]
     c0e:	f7ff fd4b 	bl	6a8 <enc_value>
     c12:	4603      	mov	r3, r0
     c14:	e020      	b.n	c58 <TA_InvokeCommandEntryPoint+0x94>
/home/meander/optee/optee_examples/TEEencrypt/ta/TEEencrypt_ta.c:320
     c16:	6838      	ldr	r0, [r7, #0]
     c18:	f7ff fea4 	bl	964 <dec_value>
     c1c:	4603      	mov	r3, r0
     c1e:	e01b      	b.n	c58 <TA_InvokeCommandEntryPoint+0x94>
/home/meander/optee/optee_examples/TEEencrypt/ta/TEEencrypt_ta.c:322
     c20:	6838      	ldr	r0, [r7, #0]
     c22:	f7ff fe9f 	bl	964 <dec_value>
     c26:	4603      	mov	r3, r0
     c28:	e016      	b.n	c58 <TA_InvokeCommandEntryPoint+0x94>
/home/meander/optee/optee_examples/TEEencrypt/ta/TEEencrypt_ta.c:324
     c2a:	68f8      	ldr	r0, [r7, #12]
     c2c:	f7ff fb38 	bl	2a0 <RSA_create_key_pair>
     c30:	4603      	mov	r3, r0
     c32:	e011      	b.n	c58 <TA_InvokeCommandEntryPoint+0x94>
/home/meander/optee/optee_examples/TEEencrypt/ta/TEEencrypt_ta.c:326
     c34:	683a      	ldr	r2, [r7, #0]
     c36:	6879      	ldr	r1, [r7, #4]
     c38:	68f8      	ldr	r0, [r7, #12]
     c3a:	f7ff fba9 	bl	390 <RSA_encrypt>
     c3e:	4603      	mov	r3, r0
     c40:	e00a      	b.n	c58 <TA_InvokeCommandEntryPoint+0x94>
/home/meander/optee/optee_examples/TEEencrypt/ta/TEEencrypt_ta.c:328
     c42:	683a      	ldr	r2, [r7, #0]
     c44:	6879      	ldr	r1, [r7, #4]
     c46:	68f8      	ldr	r0, [r7, #12]
     c48:	f7ff fc68 	bl	51c <RSA_decrypt>
     c4c:	4603      	mov	r3, r0
     c4e:	e003      	b.n	c58 <TA_InvokeCommandEntryPoint+0x94>
/home/meander/optee/optee_examples/TEEencrypt/ta/TEEencrypt_ta.c:330
     c50:	f04f 0306 	mov.w	r3, #6
     c54:	f6cf 73ff 	movt	r3, #65535	; 0xffff
/home/meander/optee/optee_examples/TEEencrypt/ta/TEEencrypt_ta.c:332
     c58:	4618      	mov	r0, r3
     c5a:	f107 0710 	add.w	r7, r7, #16
     c5e:	46bd      	mov	sp, r7
     c60:	bd80      	pop	{r7, pc}
     c62:	bf00      	nop
     c64:	000124c2 	.word	0x000124c2

00000c68 <__utee_from_param>:
__utee_from_param():
/home/meander/optee/optee_os/lib/libutee/tee_api.c:42
     c68:	e96d 4702 	strd	r4, r7, [sp, #-8]!
     c6c:	b086      	sub	sp, #24
     c6e:	af00      	add	r7, sp, #0
     c70:	60f8      	str	r0, [r7, #12]
     c72:	60b9      	str	r1, [r7, #8]
     c74:	607a      	str	r2, [r7, #4]
/home/meander/optee/optee_os/lib/libutee/tee_api.c:45
     c76:	68bb      	ldr	r3, [r7, #8]
     c78:	f04f 0400 	mov.w	r4, #0
     c7c:	68fa      	ldr	r2, [r7, #12]
     c7e:	e9c2 3400 	strd	r3, r4, [r2]
/home/meander/optee/optee_os/lib/libutee/tee_api.c:46
     c82:	f04f 0300 	mov.w	r3, #0
     c86:	617b      	str	r3, [r7, #20]
     c88:	e095      	b.n	db6 <__utee_from_param+0x14e>
/home/meander/optee/optee_os/lib/libutee/tee_api.c:47
     c8a:	697b      	ldr	r3, [r7, #20]
     c8c:	ea4f 0383 	mov.w	r3, r3, lsl #2
     c90:	68ba      	ldr	r2, [r7, #8]
     c92:	fa22 f303 	lsr.w	r3, r2, r3
     c96:	f003 030f 	and.w	r3, r3, #15
     c9a:	f103 33ff 	add.w	r3, r3, #4294967295	; 0xffffffff
     c9e:	2b06      	cmp	r3, #6
     ca0:	d864      	bhi.n	d6c <__utee_from_param+0x104>
     ca2:	a202      	add	r2, pc, #8	; (adr r2, cac <__utee_from_param+0x44>)
     ca4:	f852 3023 	ldr.w	r3, [r2, r3, lsl #2]
     ca8:	441a      	add	r2, r3
     caa:	4710      	bx	r2
     cac:	0000001d 	.word	0x0000001d
     cb0:	0000001d 	.word	0x0000001d
     cb4:	0000001d 	.word	0x0000001d
     cb8:	000000c1 	.word	0x000000c1
     cbc:	0000006f 	.word	0x0000006f
     cc0:	0000006f 	.word	0x0000006f
     cc4:	0000006f 	.word	0x0000006f
/home/meander/optee/optee_os/lib/libutee/tee_api.c:51
     cc8:	697b      	ldr	r3, [r7, #20]
     cca:	ea4f 0243 	mov.w	r2, r3, lsl #1
     cce:	697b      	ldr	r3, [r7, #20]
     cd0:	ea4f 03c3 	mov.w	r3, r3, lsl #3
     cd4:	6879      	ldr	r1, [r7, #4]
     cd6:	440b      	add	r3, r1
     cd8:	681b      	ldr	r3, [r3, #0]
     cda:	f04f 0400 	mov.w	r4, #0
     cde:	68f9      	ldr	r1, [r7, #12]
     ce0:	f102 0201 	add.w	r2, r2, #1
     ce4:	ea4f 02c2 	mov.w	r2, r2, lsl #3
     ce8:	440a      	add	r2, r1
     cea:	e9c2 3400 	strd	r3, r4, [r2]
/home/meander/optee/optee_os/lib/libutee/tee_api.c:52
     cee:	697b      	ldr	r3, [r7, #20]
     cf0:	ea4f 0343 	mov.w	r3, r3, lsl #1
     cf4:	f103 0201 	add.w	r2, r3, #1
     cf8:	697b      	ldr	r3, [r7, #20]
     cfa:	ea4f 03c3 	mov.w	r3, r3, lsl #3
     cfe:	6879      	ldr	r1, [r7, #4]
     d00:	440b      	add	r3, r1
     d02:	685b      	ldr	r3, [r3, #4]
     d04:	f04f 0400 	mov.w	r4, #0
     d08:	68f9      	ldr	r1, [r7, #12]
     d0a:	f102 0201 	add.w	r2, r2, #1
     d0e:	ea4f 02c2 	mov.w	r2, r2, lsl #3
     d12:	440a      	add	r2, r1
     d14:	e9c2 3400 	strd	r3, r4, [r2]
/home/meander/optee/optee_os/lib/libutee/tee_api.c:53
     d18:	e049      	b.n	dae <__utee_from_param+0x146>
/home/meander/optee/optee_os/lib/libutee/tee_api.c:57
     d1a:	697b      	ldr	r3, [r7, #20]
     d1c:	ea4f 0243 	mov.w	r2, r3, lsl #1
     d20:	697b      	ldr	r3, [r7, #20]
     d22:	ea4f 03c3 	mov.w	r3, r3, lsl #3
     d26:	6879      	ldr	r1, [r7, #4]
     d28:	440b      	add	r3, r1
     d2a:	681b      	ldr	r3, [r3, #0]
     d2c:	f04f 0400 	mov.w	r4, #0
     d30:	68f9      	ldr	r1, [r7, #12]
     d32:	f102 0201 	add.w	r2, r2, #1
     d36:	ea4f 02c2 	mov.w	r2, r2, lsl #3
     d3a:	440a      	add	r2, r1
     d3c:	e9c2 3400 	strd	r3, r4, [r2]
/home/meander/optee/optee_os/lib/libutee/tee_api.c:58
     d40:	697b      	ldr	r3, [r7, #20]
     d42:	ea4f 0343 	mov.w	r3, r3, lsl #1
     d46:	f103 0201 	add.w	r2, r3, #1
     d4a:	697b      	ldr	r3, [r7, #20]
     d4c:	ea4f 03c3 	mov.w	r3, r3, lsl #3
     d50:	6879      	ldr	r1, [r7, #4]
     d52:	440b      	add	r3, r1
     d54:	685b      	ldr	r3, [r3, #4]
     d56:	f04f 0400 	mov.w	r4, #0
     d5a:	68f9      	ldr	r1, [r7, #12]
     d5c:	f102 0201 	add.w	r2, r2, #1
     d60:	ea4f 02c2 	mov.w	r2, r2, lsl #3
     d64:	440a      	add	r2, r1
     d66:	e9c2 3400 	strd	r3, r4, [r2]
/home/meander/optee/optee_os/lib/libutee/tee_api.c:59
     d6a:	e020      	b.n	dae <__utee_from_param+0x146>
/home/meander/optee/optee_os/lib/libutee/tee_api.c:61
     d6c:	697b      	ldr	r3, [r7, #20]
     d6e:	ea4f 0343 	mov.w	r3, r3, lsl #1
     d72:	68fa      	ldr	r2, [r7, #12]
     d74:	f103 0301 	add.w	r3, r3, #1
     d78:	ea4f 03c3 	mov.w	r3, r3, lsl #3
     d7c:	441a      	add	r2, r3
     d7e:	f04f 0300 	mov.w	r3, #0
     d82:	f04f 0400 	mov.w	r4, #0
     d86:	e9c2 3400 	strd	r3, r4, [r2]
/home/meander/optee/optee_os/lib/libutee/tee_api.c:62
     d8a:	697b      	ldr	r3, [r7, #20]
     d8c:	ea4f 0343 	mov.w	r3, r3, lsl #1
     d90:	f103 0301 	add.w	r3, r3, #1
     d94:	68fa      	ldr	r2, [r7, #12]
     d96:	f103 0301 	add.w	r3, r3, #1
     d9a:	ea4f 03c3 	mov.w	r3, r3, lsl #3
     d9e:	441a      	add	r2, r3
     da0:	f04f 0300 	mov.w	r3, #0
     da4:	f04f 0400 	mov.w	r4, #0
     da8:	e9c2 3400 	strd	r3, r4, [r2]
/home/meander/optee/optee_os/lib/libutee/tee_api.c:63
     dac:	bf00      	nop
/home/meander/optee/optee_os/lib/libutee/tee_api.c:46 (discriminator 2)
     dae:	697b      	ldr	r3, [r7, #20]
     db0:	f103 0301 	add.w	r3, r3, #1
     db4:	617b      	str	r3, [r7, #20]
/home/meander/optee/optee_os/lib/libutee/tee_api.c:46 (discriminator 1)
     db6:	697b      	ldr	r3, [r7, #20]
     db8:	2b03      	cmp	r3, #3
     dba:	f67f af66 	bls.w	c8a <__utee_from_param+0x22>
/home/meander/optee/optee_os/lib/libutee/tee_api.c:66
     dbe:	bf00      	nop
     dc0:	f107 0718 	add.w	r7, r7, #24
     dc4:	46bd      	mov	sp, r7
     dc6:	e9dd 4700 	ldrd	r4, r7, [sp]
     dca:	b002      	add	sp, #8
     dcc:	4770      	bx	lr

00000dce <__utee_to_param>:
__utee_to_param():
/home/meander/optee/optee_os/lib/libutee/tee_api.c:70
     dce:	e96d 4702 	strd	r4, r7, [sp, #-8]!
     dd2:	b088      	sub	sp, #32
     dd4:	af00      	add	r7, sp, #0
     dd6:	60f8      	str	r0, [r7, #12]
     dd8:	60b9      	str	r1, [r7, #8]
     dda:	607a      	str	r2, [r7, #4]
/home/meander/optee/optee_os/lib/libutee/tee_api.c:72
     ddc:	687b      	ldr	r3, [r7, #4]
     dde:	e9d3 3400 	ldrd	r3, r4, [r3]
     de2:	61bb      	str	r3, [r7, #24]
/home/meander/optee/optee_os/lib/libutee/tee_api.c:74
     de4:	f04f 0300 	mov.w	r3, #0
     de8:	61fb      	str	r3, [r7, #28]
     dea:	e05c      	b.n	ea6 <__utee_to_param+0xd8>
/home/meander/optee/optee_os/lib/libutee/tee_api.c:75
     dec:	69fb      	ldr	r3, [r7, #28]
     dee:	ea4f 0343 	mov.w	r3, r3, lsl #1
     df2:	687a      	ldr	r2, [r7, #4]
     df4:	f103 0301 	add.w	r3, r3, #1
     df8:	ea4f 03c3 	mov.w	r3, r3, lsl #3
     dfc:	4413      	add	r3, r2
     dfe:	e9d3 3400 	ldrd	r3, r4, [r3]
     e02:	617b      	str	r3, [r7, #20]
/home/meander/optee/optee_os/lib/libutee/tee_api.c:76
     e04:	69fb      	ldr	r3, [r7, #28]
     e06:	ea4f 0343 	mov.w	r3, r3, lsl #1
     e0a:	f103 0301 	add.w	r3, r3, #1
     e0e:	687a      	ldr	r2, [r7, #4]
     e10:	f103 0301 	add.w	r3, r3, #1
     e14:	ea4f 03c3 	mov.w	r3, r3, lsl #3
     e18:	4413      	add	r3, r2
     e1a:	e9d3 3400 	ldrd	r3, r4, [r3]
     e1e:	613b      	str	r3, [r7, #16]
/home/meander/optee/optee_os/lib/libutee/tee_api.c:78
     e20:	69fb      	ldr	r3, [r7, #28]
     e22:	ea4f 0383 	mov.w	r3, r3, lsl #2
     e26:	69ba      	ldr	r2, [r7, #24]
     e28:	fa22 f303 	lsr.w	r3, r2, r3
     e2c:	f003 030f 	and.w	r3, r3, #15
     e30:	f103 33ff 	add.w	r3, r3, #4294967295	; 0xffffffff
     e34:	2b06      	cmp	r3, #6
     e36:	d831      	bhi.n	e9c <__utee_to_param+0xce>
     e38:	a202      	add	r2, pc, #8	; (adr r2, e44 <__utee_to_param+0x76>)
     e3a:	f852 3023 	ldr.w	r3, [r2, r3, lsl #2]
     e3e:	441a      	add	r2, r3
     e40:	4710      	bx	r2
     e42:	bf00      	nop
     e44:	0000001d 	.word	0x0000001d
     e48:	0000001d 	.word	0x0000001d
     e4c:	0000001d 	.word	0x0000001d
     e50:	00000059 	.word	0x00000059
     e54:	0000003b 	.word	0x0000003b
     e58:	0000003b 	.word	0x0000003b
     e5c:	0000003b 	.word	0x0000003b
/home/meander/optee/optee_os/lib/libutee/tee_api.c:82
     e60:	69fb      	ldr	r3, [r7, #28]
     e62:	ea4f 03c3 	mov.w	r3, r3, lsl #3
     e66:	68fa      	ldr	r2, [r7, #12]
     e68:	4413      	add	r3, r2
     e6a:	697a      	ldr	r2, [r7, #20]
     e6c:	601a      	str	r2, [r3, #0]
/home/meander/optee/optee_os/lib/libutee/tee_api.c:83
     e6e:	69fb      	ldr	r3, [r7, #28]
     e70:	ea4f 03c3 	mov.w	r3, r3, lsl #3
     e74:	68fa      	ldr	r2, [r7, #12]
     e76:	4413      	add	r3, r2
     e78:	693a      	ldr	r2, [r7, #16]
     e7a:	605a      	str	r2, [r3, #4]
/home/meander/optee/optee_os/lib/libutee/tee_api.c:84
     e7c:	e00f      	b.n	e9e <__utee_to_param+0xd0>
/home/meander/optee/optee_os/lib/libutee/tee_api.c:88
     e7e:	69fb      	ldr	r3, [r7, #28]
     e80:	ea4f 03c3 	mov.w	r3, r3, lsl #3
     e84:	68fa      	ldr	r2, [r7, #12]
     e86:	4413      	add	r3, r2
     e88:	697a      	ldr	r2, [r7, #20]
     e8a:	601a      	str	r2, [r3, #0]
/home/meander/optee/optee_os/lib/libutee/tee_api.c:89
     e8c:	69fb      	ldr	r3, [r7, #28]
     e8e:	ea4f 03c3 	mov.w	r3, r3, lsl #3
     e92:	68fa      	ldr	r2, [r7, #12]
     e94:	4413      	add	r3, r2
     e96:	693a      	ldr	r2, [r7, #16]
     e98:	605a      	str	r2, [r3, #4]
/home/meander/optee/optee_os/lib/libutee/tee_api.c:90
     e9a:	e000      	b.n	e9e <__utee_to_param+0xd0>
/home/meander/optee/optee_os/lib/libutee/tee_api.c:92
     e9c:	bf00      	nop
/home/meander/optee/optee_os/lib/libutee/tee_api.c:74 (discriminator 2)
     e9e:	69fb      	ldr	r3, [r7, #28]
     ea0:	f103 0301 	add.w	r3, r3, #1
     ea4:	61fb      	str	r3, [r7, #28]
/home/meander/optee/optee_os/lib/libutee/tee_api.c:74 (discriminator 1)
     ea6:	69fb      	ldr	r3, [r7, #28]
     ea8:	2b03      	cmp	r3, #3
     eaa:	d99f      	bls.n	dec <__utee_to_param+0x1e>
/home/meander/optee/optee_os/lib/libutee/tee_api.c:96
     eac:	68bb      	ldr	r3, [r7, #8]
     eae:	2b00      	cmp	r3, #0
     eb0:	d002      	beq.n	eb8 <__utee_to_param+0xea>
/home/meander/optee/optee_os/lib/libutee/tee_api.c:97
     eb2:	68bb      	ldr	r3, [r7, #8]
     eb4:	69ba      	ldr	r2, [r7, #24]
     eb6:	601a      	str	r2, [r3, #0]
/home/meander/optee/optee_os/lib/libutee/tee_api.c:98
     eb8:	bf00      	nop
     eba:	f107 0720 	add.w	r7, r7, #32
     ebe:	46bd      	mov	sp, r7
     ec0:	e9dd 4700 	ldrd	r4, r7, [sp]
     ec4:	b002      	add	sp, #8
     ec6:	4770      	bx	lr

00000ec8 <TEE_OpenTASession>:
TEE_OpenTASession():
/home/meander/optee/optee_os/lib/libutee/tee_api.c:106
     ec8:	e96d 7e02 	strd	r7, lr, [sp, #-8]!
     ecc:	b09c      	sub	sp, #112	; 0x70
     ece:	af02      	add	r7, sp, #8
     ed0:	60f8      	str	r0, [r7, #12]
     ed2:	60b9      	str	r1, [r7, #8]
     ed4:	607a      	str	r2, [r7, #4]
     ed6:	603b      	str	r3, [r7, #0]
/home/meander/optee/optee_os/lib/libutee/tee_api.c:111
     ed8:	f107 0318 	add.w	r3, r7, #24
     edc:	683a      	ldr	r2, [r7, #0]
     ede:	6879      	ldr	r1, [r7, #4]
     ee0:	4618      	mov	r0, r3
     ee2:	f7ff fec1 	bl	c68 <__utee_from_param>
/home/meander/optee/optee_os/lib/libutee/tee_api.c:112
     ee6:	f107 0114 	add.w	r1, r7, #20
     eea:	f107 0218 	add.w	r2, r7, #24
     eee:	6f7b      	ldr	r3, [r7, #116]	; 0x74
     ef0:	9300      	str	r3, [sp, #0]
     ef2:	460b      	mov	r3, r1
     ef4:	68b9      	ldr	r1, [r7, #8]
     ef6:	68f8      	ldr	r0, [r7, #12]
     ef8:	f003 ea30 	blx	435c <utee_open_ta_session>
     efc:	6678      	str	r0, [r7, #100]	; 0x64
/home/meander/optee/optee_os/lib/libutee/tee_api.c:114
     efe:	f107 0318 	add.w	r3, r7, #24
     f02:	461a      	mov	r2, r3
     f04:	f04f 0100 	mov.w	r1, #0
     f08:	6838      	ldr	r0, [r7, #0]
     f0a:	f7ff ff60 	bl	dce <__utee_to_param>
/home/meander/optee/optee_os/lib/libutee/tee_api.c:120
     f0e:	6e7b      	ldr	r3, [r7, #100]	; 0x64
     f10:	2b00      	cmp	r3, #0
     f12:	d002      	beq.n	f1a <TEE_OpenTASession+0x52>
/home/meander/optee/optee_os/lib/libutee/tee_api.c:121
     f14:	f04f 0300 	mov.w	r3, #0
     f18:	617b      	str	r3, [r7, #20]
/home/meander/optee/optee_os/lib/libutee/tee_api.c:123
     f1a:	697b      	ldr	r3, [r7, #20]
     f1c:	461a      	mov	r2, r3
     f1e:	6f3b      	ldr	r3, [r7, #112]	; 0x70
     f20:	601a      	str	r2, [r3, #0]
/home/meander/optee/optee_os/lib/libutee/tee_api.c:124
     f22:	6e7b      	ldr	r3, [r7, #100]	; 0x64
/home/meander/optee/optee_os/lib/libutee/tee_api.c:125
     f24:	4618      	mov	r0, r3
     f26:	f107 0768 	add.w	r7, r7, #104	; 0x68
     f2a:	46bd      	mov	sp, r7
     f2c:	bd80      	pop	{r7, pc}

00000f2e <TEE_CloseTASession>:
TEE_CloseTASession():
/home/meander/optee/optee_os/lib/libutee/tee_api.c:128
     f2e:	e96d 7e02 	strd	r7, lr, [sp, #-8]!
     f32:	b084      	sub	sp, #16
     f34:	af00      	add	r7, sp, #0
     f36:	6078      	str	r0, [r7, #4]
/home/meander/optee/optee_os/lib/libutee/tee_api.c:129
     f38:	687b      	ldr	r3, [r7, #4]
     f3a:	2b00      	cmp	r3, #0
     f3c:	d00a      	beq.n	f54 <TEE_CloseTASession+0x26>
/home/meander/optee/optee_os/lib/libutee/tee_api.c:130
     f3e:	687b      	ldr	r3, [r7, #4]
     f40:	4618      	mov	r0, r3
     f42:	f003 ea18 	blx	4374 <utee_close_ta_session>
     f46:	60f8      	str	r0, [r7, #12]
/home/meander/optee/optee_os/lib/libutee/tee_api.c:132
     f48:	68fb      	ldr	r3, [r7, #12]
     f4a:	2b00      	cmp	r3, #0
     f4c:	d002      	beq.n	f54 <TEE_CloseTASession+0x26>
/home/meander/optee/optee_os/lib/libutee/tee_api.c:133
     f4e:	68f8      	ldr	r0, [r7, #12]
     f50:	f00a f8fe 	bl	b150 <TEE_Panic>
/home/meander/optee/optee_os/lib/libutee/tee_api.c:135
     f54:	bf00      	nop
     f56:	f107 0710 	add.w	r7, r7, #16
     f5a:	46bd      	mov	sp, r7
     f5c:	bd80      	pop	{r7, pc}

00000f5e <TEE_InvokeTACommand>:
TEE_InvokeTACommand():
/home/meander/optee/optee_os/lib/libutee/tee_api.c:142
     f5e:	e96d 7e02 	strd	r7, lr, [sp, #-8]!
     f62:	b09a      	sub	sp, #104	; 0x68
     f64:	af02      	add	r7, sp, #8
     f66:	60f8      	str	r0, [r7, #12]
     f68:	60b9      	str	r1, [r7, #8]
     f6a:	607a      	str	r2, [r7, #4]
     f6c:	603b      	str	r3, [r7, #0]
/home/meander/optee/optee_os/lib/libutee/tee_api.c:147
     f6e:	f107 0310 	add.w	r3, r7, #16
     f72:	6eba      	ldr	r2, [r7, #104]	; 0x68
     f74:	6839      	ldr	r1, [r7, #0]
     f76:	4618      	mov	r0, r3
     f78:	f7ff fe76 	bl	c68 <__utee_from_param>
/home/meander/optee/optee_os/lib/libutee/tee_api.c:148
     f7c:	68f8      	ldr	r0, [r7, #12]
     f7e:	f107 0210 	add.w	r2, r7, #16
     f82:	f107 0358 	add.w	r3, r7, #88	; 0x58
     f86:	9300      	str	r3, [sp, #0]
     f88:	4613      	mov	r3, r2
     f8a:	687a      	ldr	r2, [r7, #4]
     f8c:	68b9      	ldr	r1, [r7, #8]
     f8e:	f003 e9fc 	blx	4388 <utee_invoke_ta_command>
     f92:	65f8      	str	r0, [r7, #92]	; 0x5c
/home/meander/optee/optee_os/lib/libutee/tee_api.c:151
     f94:	f107 0310 	add.w	r3, r7, #16
     f98:	461a      	mov	r2, r3
     f9a:	f04f 0100 	mov.w	r1, #0
     f9e:	6eb8      	ldr	r0, [r7, #104]	; 0x68
     fa0:	f7ff ff15 	bl	dce <__utee_to_param>
/home/meander/optee/optee_os/lib/libutee/tee_api.c:153
     fa4:	6efb      	ldr	r3, [r7, #108]	; 0x6c
     fa6:	2b00      	cmp	r3, #0
     fa8:	d002      	beq.n	fb0 <TEE_InvokeTACommand+0x52>
/home/meander/optee/optee_os/lib/libutee/tee_api.c:154
     faa:	6dba      	ldr	r2, [r7, #88]	; 0x58
     fac:	6efb      	ldr	r3, [r7, #108]	; 0x6c
     fae:	601a      	str	r2, [r3, #0]
/home/meander/optee/optee_os/lib/libutee/tee_api.c:156
     fb0:	6dbb      	ldr	r3, [r7, #88]	; 0x58
     fb2:	2b04      	cmp	r3, #4
     fb4:	d101      	bne.n	fba <TEE_InvokeTACommand+0x5c>
/home/meander/optee/optee_os/lib/libutee/tee_api.c:157
     fb6:	6dfb      	ldr	r3, [r7, #92]	; 0x5c
     fb8:	e014      	b.n	fe4 <TEE_InvokeTACommand+0x86>
/home/meander/optee/optee_os/lib/libutee/tee_api.c:159
     fba:	6dfb      	ldr	r3, [r7, #92]	; 0x5c
     fbc:	2b00      	cmp	r3, #0
     fbe:	d010      	beq.n	fe2 <TEE_InvokeTACommand+0x84>
/home/meander/optee/optee_os/lib/libutee/tee_api.c:159 (discriminator 1)
     fc0:	6dfa      	ldr	r2, [r7, #92]	; 0x5c
     fc2:	f04f 030c 	mov.w	r3, #12
     fc6:	f6cf 73ff 	movt	r3, #65535	; 0xffff
     fca:	429a      	cmp	r2, r3
     fcc:	d009      	beq.n	fe2 <TEE_InvokeTACommand+0x84>
/home/meander/optee/optee_os/lib/libutee/tee_api.c:160
     fce:	6dfa      	ldr	r2, [r7, #92]	; 0x5c
     fd0:	f243 0324 	movw	r3, #12324	; 0x3024
     fd4:	f6cf 73ff 	movt	r3, #65535	; 0xffff
     fd8:	429a      	cmp	r2, r3
     fda:	d002      	beq.n	fe2 <TEE_InvokeTACommand+0x84>
/home/meander/optee/optee_os/lib/libutee/tee_api.c:162
     fdc:	6df8      	ldr	r0, [r7, #92]	; 0x5c
     fde:	f00a f8b7 	bl	b150 <TEE_Panic>
/home/meander/optee/optee_os/lib/libutee/tee_api.c:164
     fe2:	6dfb      	ldr	r3, [r7, #92]	; 0x5c
/home/meander/optee/optee_os/lib/libutee/tee_api.c:165 (discriminator 1)
     fe4:	4618      	mov	r0, r3
     fe6:	f107 0760 	add.w	r7, r7, #96	; 0x60
     fea:	46bd      	mov	sp, r7
     fec:	bd80      	pop	{r7, pc}

00000fee <TEE_GetCancellationFlag>:
TEE_GetCancellationFlag():
/home/meander/optee/optee_os/lib/libutee/tee_api.c:170
     fee:	e96d 7e02 	strd	r7, lr, [sp, #-8]!
     ff2:	b082      	sub	sp, #8
     ff4:	af00      	add	r7, sp, #0
/home/meander/optee/optee_os/lib/libutee/tee_api.c:172
     ff6:	463b      	mov	r3, r7
     ff8:	4618      	mov	r0, r3
     ffa:	f003 e9d2 	blx	43a0 <utee_get_cancellation_flag>
     ffe:	6078      	str	r0, [r7, #4]
/home/meander/optee/optee_os/lib/libutee/tee_api.c:174
    1000:	687b      	ldr	r3, [r7, #4]
    1002:	2b00      	cmp	r3, #0
    1004:	d002      	beq.n	100c <TEE_GetCancellationFlag+0x1e>
/home/meander/optee/optee_os/lib/libutee/tee_api.c:175
    1006:	f04f 0300 	mov.w	r3, #0
    100a:	603b      	str	r3, [r7, #0]
/home/meander/optee/optee_os/lib/libutee/tee_api.c:176
    100c:	683b      	ldr	r3, [r7, #0]
    100e:	2b00      	cmp	r3, #0
    1010:	bf14      	ite	ne
    1012:	2301      	movne	r3, #1
    1014:	2300      	moveq	r3, #0
    1016:	b2db      	uxtb	r3, r3
/home/meander/optee/optee_os/lib/libutee/tee_api.c:177
    1018:	4618      	mov	r0, r3
    101a:	f107 0708 	add.w	r7, r7, #8
    101e:	46bd      	mov	sp, r7
    1020:	bd80      	pop	{r7, pc}

00001022 <TEE_UnmaskCancellation>:
TEE_UnmaskCancellation():
/home/meander/optee/optee_os/lib/libutee/tee_api.c:180
    1022:	e96d 7e02 	strd	r7, lr, [sp, #-8]!
    1026:	b082      	sub	sp, #8
    1028:	af00      	add	r7, sp, #0
/home/meander/optee/optee_os/lib/libutee/tee_api.c:182
    102a:	463b      	mov	r3, r7
    102c:	4618      	mov	r0, r3
    102e:	f003 e9cc 	blx	43c8 <utee_unmask_cancellation>
    1032:	6078      	str	r0, [r7, #4]
/home/meander/optee/optee_os/lib/libutee/tee_api.c:184
    1034:	687b      	ldr	r3, [r7, #4]
    1036:	2b00      	cmp	r3, #0
    1038:	d002      	beq.n	1040 <TEE_UnmaskCancellation+0x1e>
/home/meander/optee/optee_os/lib/libutee/tee_api.c:185
    103a:	6878      	ldr	r0, [r7, #4]
    103c:	f00a f888 	bl	b150 <TEE_Panic>
/home/meander/optee/optee_os/lib/libutee/tee_api.c:186
    1040:	683b      	ldr	r3, [r7, #0]
    1042:	2b00      	cmp	r3, #0
    1044:	bf14      	ite	ne
    1046:	2301      	movne	r3, #1
    1048:	2300      	moveq	r3, #0
    104a:	b2db      	uxtb	r3, r3
/home/meander/optee/optee_os/lib/libutee/tee_api.c:187
    104c:	4618      	mov	r0, r3
    104e:	f107 0708 	add.w	r7, r7, #8
    1052:	46bd      	mov	sp, r7
    1054:	bd80      	pop	{r7, pc}

00001056 <TEE_MaskCancellation>:
TEE_MaskCancellation():
/home/meander/optee/optee_os/lib/libutee/tee_api.c:190
    1056:	e96d 7e02 	strd	r7, lr, [sp, #-8]!
    105a:	b082      	sub	sp, #8
    105c:	af00      	add	r7, sp, #0
/home/meander/optee/optee_os/lib/libutee/tee_api.c:192
    105e:	463b      	mov	r3, r7
    1060:	4618      	mov	r0, r3
    1062:	f003 e9bc 	blx	43dc <utee_mask_cancellation>
    1066:	6078      	str	r0, [r7, #4]
/home/meander/optee/optee_os/lib/libutee/tee_api.c:194
    1068:	687b      	ldr	r3, [r7, #4]
    106a:	2b00      	cmp	r3, #0
    106c:	d002      	beq.n	1074 <TEE_MaskCancellation+0x1e>
/home/meander/optee/optee_os/lib/libutee/tee_api.c:195
    106e:	6878      	ldr	r0, [r7, #4]
    1070:	f00a f86e 	bl	b150 <TEE_Panic>
/home/meander/optee/optee_os/lib/libutee/tee_api.c:196
    1074:	683b      	ldr	r3, [r7, #0]
    1076:	2b00      	cmp	r3, #0
    1078:	bf14      	ite	ne
    107a:	2301      	movne	r3, #1
    107c:	2300      	moveq	r3, #0
    107e:	b2db      	uxtb	r3, r3
/home/meander/optee/optee_os/lib/libutee/tee_api.c:197
    1080:	4618      	mov	r0, r3
    1082:	f107 0708 	add.w	r7, r7, #8
    1086:	46bd      	mov	sp, r7
    1088:	bd80      	pop	{r7, pc}

0000108a <TEE_CheckMemoryAccessRights>:
TEE_CheckMemoryAccessRights():
/home/meander/optee/optee_os/lib/libutee/tee_api.c:203
    108a:	e96d 7e02 	strd	r7, lr, [sp, #-8]!
    108e:	b086      	sub	sp, #24
    1090:	af00      	add	r7, sp, #0
    1092:	60f8      	str	r0, [r7, #12]
    1094:	60b9      	str	r1, [r7, #8]
    1096:	607a      	str	r2, [r7, #4]
/home/meander/optee/optee_os/lib/libutee/tee_api.c:206
    1098:	687b      	ldr	r3, [r7, #4]
    109a:	2b00      	cmp	r3, #0
    109c:	d102      	bne.n	10a4 <TEE_CheckMemoryAccessRights+0x1a>
/home/meander/optee/optee_os/lib/libutee/tee_api.c:207
    109e:	f04f 0300 	mov.w	r3, #0
    10a2:	e00e      	b.n	10c2 <TEE_CheckMemoryAccessRights+0x38>
/home/meander/optee/optee_os/lib/libutee/tee_api.c:210
    10a4:	687a      	ldr	r2, [r7, #4]
    10a6:	68b9      	ldr	r1, [r7, #8]
    10a8:	68f8      	ldr	r0, [r7, #12]
    10aa:	f003 e984 	blx	43b4 <utee_check_access_rights>
    10ae:	6178      	str	r0, [r7, #20]
/home/meander/optee/optee_os/lib/libutee/tee_api.c:211
    10b0:	697b      	ldr	r3, [r7, #20]
    10b2:	2b00      	cmp	r3, #0
    10b4:	d103      	bne.n	10be <TEE_CheckMemoryAccessRights+0x34>
/home/meander/optee/optee_os/lib/libutee/tee_api.c:219
    10b6:	f04f 0300 	mov.w	r3, #0
    10ba:	617b      	str	r3, [r7, #20]
    10bc:	e000      	b.n	10c0 <TEE_CheckMemoryAccessRights+0x36>
/home/meander/optee/optee_os/lib/libutee/tee_api.c:212
    10be:	bf00      	nop
/home/meander/optee/optee_os/lib/libutee/tee_api.c:221
    10c0:	697b      	ldr	r3, [r7, #20]
/home/meander/optee/optee_os/lib/libutee/tee_api.c:222
    10c2:	4618      	mov	r0, r3
    10c4:	f107 0718 	add.w	r7, r7, #24
    10c8:	46bd      	mov	sp, r7
    10ca:	bd80      	pop	{r7, pc}

000010cc <TEE_SetInstanceData>:
TEE_SetInstanceData():
/home/meander/optee/optee_os/lib/libutee/tee_api.c:225
    10cc:	f84d 7d04 	str.w	r7, [sp, #-4]!
    10d0:	b083      	sub	sp, #12
    10d2:	af00      	add	r7, sp, #0
    10d4:	6078      	str	r0, [r7, #4]
/home/meander/optee/optee_os/lib/libutee/tee_api.c:226
    10d6:	4b06      	ldr	r3, [pc, #24]	; (10f0 <TEE_SetInstanceData+0x24>)
    10d8:	447b      	add	r3, pc
    10da:	461a      	mov	r2, r3
    10dc:	687b      	ldr	r3, [r7, #4]
    10de:	6013      	str	r3, [r2, #0]
/home/meander/optee/optee_os/lib/libutee/tee_api.c:227
    10e0:	bf00      	nop
    10e2:	f107 070c 	add.w	r7, r7, #12
    10e6:	46bd      	mov	sp, r7
    10e8:	f85d 7b04 	ldr.w	r7, [sp], #4
    10ec:	4770      	bx	lr
    10ee:	bf00      	nop
    10f0:	00019fc4 	.word	0x00019fc4

000010f4 <TEE_GetInstanceData>:
TEE_GetInstanceData():
/home/meander/optee/optee_os/lib/libutee/tee_api.c:230
    10f4:	f84d 7d04 	str.w	r7, [sp, #-4]!
    10f8:	af00      	add	r7, sp, #0
/home/meander/optee/optee_os/lib/libutee/tee_api.c:231
    10fa:	4b04      	ldr	r3, [pc, #16]	; (110c <TEE_GetInstanceData+0x18>)
    10fc:	447b      	add	r3, pc
    10fe:	681b      	ldr	r3, [r3, #0]
/home/meander/optee/optee_os/lib/libutee/tee_api.c:232
    1100:	4618      	mov	r0, r3
    1102:	46bd      	mov	sp, r7
    1104:	f85d 7b04 	ldr.w	r7, [sp], #4
    1108:	4770      	bx	lr
    110a:	bf00      	nop
    110c:	00019fa0 	.word	0x00019fa0

00001110 <TEE_MemMove>:
TEE_MemMove():
/home/meander/optee/optee_os/lib/libutee/tee_api.c:235
    1110:	e96d 7e02 	strd	r7, lr, [sp, #-8]!
    1114:	b084      	sub	sp, #16
    1116:	af00      	add	r7, sp, #0
    1118:	60f8      	str	r0, [r7, #12]
    111a:	60b9      	str	r1, [r7, #8]
    111c:	607a      	str	r2, [r7, #4]
/home/meander/optee/optee_os/lib/libutee/tee_api.c:236
    111e:	687a      	ldr	r2, [r7, #4]
    1120:	68b9      	ldr	r1, [r7, #8]
    1122:	68f8      	ldr	r0, [r7, #12]
    1124:	f00a f980 	bl	b428 <memmove>
    1128:	4603      	mov	r3, r0
/home/meander/optee/optee_os/lib/libutee/tee_api.c:237
    112a:	4618      	mov	r0, r3
    112c:	f107 0710 	add.w	r7, r7, #16
    1130:	46bd      	mov	sp, r7
    1132:	bd80      	pop	{r7, pc}

00001134 <TEE_MemCompare>:
TEE_MemCompare():
/home/meander/optee/optee_os/lib/libutee/tee_api.c:240
    1134:	e96d 7e02 	strd	r7, lr, [sp, #-8]!
    1138:	b084      	sub	sp, #16
    113a:	af00      	add	r7, sp, #0
    113c:	60f8      	str	r0, [r7, #12]
    113e:	60b9      	str	r1, [r7, #8]
    1140:	607a      	str	r2, [r7, #4]
/home/meander/optee/optee_os/lib/libutee/tee_api.c:241
    1142:	687a      	ldr	r2, [r7, #4]
    1144:	68b9      	ldr	r1, [r7, #8]
    1146:	68f8      	ldr	r0, [r7, #12]
    1148:	f00a f899 	bl	b27e <memcmp>
    114c:	4603      	mov	r3, r0
/home/meander/optee/optee_os/lib/libutee/tee_api.c:242
    114e:	4618      	mov	r0, r3
    1150:	f107 0710 	add.w	r7, r7, #16
    1154:	46bd      	mov	sp, r7
    1156:	bd80      	pop	{r7, pc}

00001158 <TEE_MemFill>:
TEE_MemFill():
/home/meander/optee/optee_os/lib/libutee/tee_api.c:245
    1158:	e96d 7e02 	strd	r7, lr, [sp, #-8]!
    115c:	b084      	sub	sp, #16
    115e:	af00      	add	r7, sp, #0
    1160:	60f8      	str	r0, [r7, #12]
    1162:	60b9      	str	r1, [r7, #8]
    1164:	607a      	str	r2, [r7, #4]
/home/meander/optee/optee_os/lib/libutee/tee_api.c:246
    1166:	68bb      	ldr	r3, [r7, #8]
    1168:	687a      	ldr	r2, [r7, #4]
    116a:	4619      	mov	r1, r3
    116c:	68f8      	ldr	r0, [r7, #12]
    116e:	f00a f9fa 	bl	b566 <memset>
    1172:	4603      	mov	r3, r0
/home/meander/optee/optee_os/lib/libutee/tee_api.c:247
    1174:	4618      	mov	r0, r3
    1176:	f107 0710 	add.w	r7, r7, #16
    117a:	46bd      	mov	sp, r7
    117c:	bd80      	pop	{r7, pc}

0000117e <TEE_GetSystemTime>:
TEE_GetSystemTime():
/home/meander/optee/optee_os/lib/libutee/tee_api.c:252
    117e:	e96d 7e02 	strd	r7, lr, [sp, #-8]!
    1182:	b084      	sub	sp, #16
    1184:	af00      	add	r7, sp, #0
    1186:	6078      	str	r0, [r7, #4]
/home/meander/optee/optee_os/lib/libutee/tee_api.c:253
    1188:	6879      	ldr	r1, [r7, #4]
    118a:	f04f 0000 	mov.w	r0, #0
    118e:	f003 e93a 	blx	4404 <utee_get_time>
    1192:	60f8      	str	r0, [r7, #12]
/home/meander/optee/optee_os/lib/libutee/tee_api.c:255
    1194:	68fb      	ldr	r3, [r7, #12]
    1196:	2b00      	cmp	r3, #0
    1198:	d002      	beq.n	11a0 <TEE_GetSystemTime+0x22>
/home/meander/optee/optee_os/lib/libutee/tee_api.c:256
    119a:	68f8      	ldr	r0, [r7, #12]
    119c:	f009 ffd8 	bl	b150 <TEE_Panic>
/home/meander/optee/optee_os/lib/libutee/tee_api.c:257
    11a0:	bf00      	nop
    11a2:	f107 0710 	add.w	r7, r7, #16
    11a6:	46bd      	mov	sp, r7
    11a8:	bd80      	pop	{r7, pc}

000011aa <TEE_Wait>:
TEE_Wait():
/home/meander/optee/optee_os/lib/libutee/tee_api.c:260
    11aa:	e96d 7e02 	strd	r7, lr, [sp, #-8]!
    11ae:	b084      	sub	sp, #16
    11b0:	af00      	add	r7, sp, #0
    11b2:	6078      	str	r0, [r7, #4]
/home/meander/optee/optee_os/lib/libutee/tee_api.c:261
    11b4:	6878      	ldr	r0, [r7, #4]
    11b6:	f003 e91c 	blx	43f0 <utee_wait>
    11ba:	60f8      	str	r0, [r7, #12]
/home/meander/optee/optee_os/lib/libutee/tee_api.c:263
    11bc:	68fb      	ldr	r3, [r7, #12]
    11be:	2b00      	cmp	r3, #0
    11c0:	d009      	beq.n	11d6 <TEE_Wait+0x2c>
/home/meander/optee/optee_os/lib/libutee/tee_api.c:263 (discriminator 1)
    11c2:	68fa      	ldr	r2, [r7, #12]
    11c4:	f04f 0302 	mov.w	r3, #2
    11c8:	f6cf 73ff 	movt	r3, #65535	; 0xffff
    11cc:	429a      	cmp	r2, r3
    11ce:	d002      	beq.n	11d6 <TEE_Wait+0x2c>
/home/meander/optee/optee_os/lib/libutee/tee_api.c:264
    11d0:	68f8      	ldr	r0, [r7, #12]
    11d2:	f009 ffbd 	bl	b150 <TEE_Panic>
/home/meander/optee/optee_os/lib/libutee/tee_api.c:266
    11d6:	68fb      	ldr	r3, [r7, #12]
/home/meander/optee/optee_os/lib/libutee/tee_api.c:267
    11d8:	4618      	mov	r0, r3
    11da:	f107 0710 	add.w	r7, r7, #16
    11de:	46bd      	mov	sp, r7
    11e0:	bd80      	pop	{r7, pc}

000011e2 <TEE_GetTAPersistentTime>:
TEE_GetTAPersistentTime():
/home/meander/optee/optee_os/lib/libutee/tee_api.c:270
    11e2:	e96d 7e02 	strd	r7, lr, [sp, #-8]!
    11e6:	b084      	sub	sp, #16
    11e8:	af00      	add	r7, sp, #0
    11ea:	6078      	str	r0, [r7, #4]
/home/meander/optee/optee_os/lib/libutee/tee_api.c:273
    11ec:	6879      	ldr	r1, [r7, #4]
    11ee:	f04f 0001 	mov.w	r0, #1
    11f2:	f003 e908 	blx	4404 <utee_get_time>
    11f6:	60f8      	str	r0, [r7, #12]
/home/meander/optee/optee_os/lib/libutee/tee_api.c:275
    11f8:	68fb      	ldr	r3, [r7, #12]
    11fa:	2b00      	cmp	r3, #0
    11fc:	d00e      	beq.n	121c <TEE_GetTAPersistentTime+0x3a>
/home/meander/optee/optee_os/lib/libutee/tee_api.c:275 (discriminator 1)
    11fe:	68fa      	ldr	r2, [r7, #12]
    1200:	f243 030f 	movw	r3, #12303	; 0x300f
    1204:	f6cf 73ff 	movt	r3, #65535	; 0xffff
    1208:	429a      	cmp	r2, r3
    120a:	d007      	beq.n	121c <TEE_GetTAPersistentTime+0x3a>
/home/meander/optee/optee_os/lib/libutee/tee_api.c:276
    120c:	687b      	ldr	r3, [r7, #4]
    120e:	f04f 0200 	mov.w	r2, #0
    1212:	601a      	str	r2, [r3, #0]
/home/meander/optee/optee_os/lib/libutee/tee_api.c:277
    1214:	687b      	ldr	r3, [r7, #4]
    1216:	f04f 0200 	mov.w	r2, #0
    121a:	605a      	str	r2, [r3, #4]
/home/meander/optee/optee_os/lib/libutee/tee_api.c:280
    121c:	68fb      	ldr	r3, [r7, #12]
    121e:	2b00      	cmp	r3, #0
    1220:	d01b      	beq.n	125a <TEE_GetTAPersistentTime+0x78>
/home/meander/optee/optee_os/lib/libutee/tee_api.c:280 (discriminator 1)
    1222:	68fb      	ldr	r3, [r7, #12]
    1224:	f513 4f30 	cmn.w	r3, #45056	; 0xb000
    1228:	d017      	beq.n	125a <TEE_GetTAPersistentTime+0x78>
/home/meander/optee/optee_os/lib/libutee/tee_api.c:281
    122a:	68fa      	ldr	r2, [r7, #12]
    122c:	f245 0301 	movw	r3, #20481	; 0x5001
    1230:	f6cf 73ff 	movt	r3, #65535	; 0xffff
    1234:	429a      	cmp	r2, r3
    1236:	d010      	beq.n	125a <TEE_GetTAPersistentTime+0x78>
/home/meander/optee/optee_os/lib/libutee/tee_api.c:282
    1238:	68fa      	ldr	r2, [r7, #12]
    123a:	f243 030f 	movw	r3, #12303	; 0x300f
    123e:	f6cf 73ff 	movt	r3, #65535	; 0xffff
    1242:	429a      	cmp	r2, r3
    1244:	d009      	beq.n	125a <TEE_GetTAPersistentTime+0x78>
/home/meander/optee/optee_os/lib/libutee/tee_api.c:283
    1246:	68fa      	ldr	r2, [r7, #12]
    1248:	f04f 030c 	mov.w	r3, #12
    124c:	f6cf 73ff 	movt	r3, #65535	; 0xffff
    1250:	429a      	cmp	r2, r3
    1252:	d002      	beq.n	125a <TEE_GetTAPersistentTime+0x78>
/home/meander/optee/optee_os/lib/libutee/tee_api.c:285
    1254:	68f8      	ldr	r0, [r7, #12]
    1256:	f009 ff7b 	bl	b150 <TEE_Panic>
/home/meander/optee/optee_os/lib/libutee/tee_api.c:287
    125a:	68fb      	ldr	r3, [r7, #12]
/home/meander/optee/optee_os/lib/libutee/tee_api.c:288
    125c:	4618      	mov	r0, r3
    125e:	f107 0710 	add.w	r7, r7, #16
    1262:	46bd      	mov	sp, r7
    1264:	bd80      	pop	{r7, pc}

00001266 <TEE_SetTAPersistentTime>:
TEE_SetTAPersistentTime():
/home/meander/optee/optee_os/lib/libutee/tee_api.c:291
    1266:	e96d 7e02 	strd	r7, lr, [sp, #-8]!
    126a:	b084      	sub	sp, #16
    126c:	af00      	add	r7, sp, #0
    126e:	6078      	str	r0, [r7, #4]
/home/meander/optee/optee_os/lib/libutee/tee_api.c:294
    1270:	6878      	ldr	r0, [r7, #4]
    1272:	f003 e8d2 	blx	4418 <utee_set_ta_time>
    1276:	60f8      	str	r0, [r7, #12]
/home/meander/optee/optee_os/lib/libutee/tee_api.c:296
    1278:	68fb      	ldr	r3, [r7, #12]
    127a:	2b00      	cmp	r3, #0
    127c:	d010      	beq.n	12a0 <TEE_SetTAPersistentTime+0x3a>
/home/meander/optee/optee_os/lib/libutee/tee_api.c:296 (discriminator 1)
    127e:	68fa      	ldr	r2, [r7, #12]
    1280:	f04f 030c 	mov.w	r3, #12
    1284:	f6cf 73ff 	movt	r3, #65535	; 0xffff
    1288:	429a      	cmp	r2, r3
    128a:	d009      	beq.n	12a0 <TEE_SetTAPersistentTime+0x3a>
/home/meander/optee/optee_os/lib/libutee/tee_api.c:297
    128c:	68fa      	ldr	r2, [r7, #12]
    128e:	f243 0341 	movw	r3, #12353	; 0x3041
    1292:	f6cf 73ff 	movt	r3, #65535	; 0xffff
    1296:	429a      	cmp	r2, r3
    1298:	d002      	beq.n	12a0 <TEE_SetTAPersistentTime+0x3a>
/home/meander/optee/optee_os/lib/libutee/tee_api.c:299
    129a:	68f8      	ldr	r0, [r7, #12]
    129c:	f009 ff58 	bl	b150 <TEE_Panic>
/home/meander/optee/optee_os/lib/libutee/tee_api.c:301
    12a0:	68fb      	ldr	r3, [r7, #12]
/home/meander/optee/optee_os/lib/libutee/tee_api.c:302
    12a2:	4618      	mov	r0, r3
    12a4:	f107 0710 	add.w	r7, r7, #16
    12a8:	46bd      	mov	sp, r7
    12aa:	bd80      	pop	{r7, pc}

000012ac <TEE_GetREETime>:
TEE_GetREETime():
/home/meander/optee/optee_os/lib/libutee/tee_api.c:305
    12ac:	e96d 7e02 	strd	r7, lr, [sp, #-8]!
    12b0:	b084      	sub	sp, #16
    12b2:	af00      	add	r7, sp, #0
    12b4:	6078      	str	r0, [r7, #4]
/home/meander/optee/optee_os/lib/libutee/tee_api.c:306
    12b6:	6879      	ldr	r1, [r7, #4]
    12b8:	f04f 0002 	mov.w	r0, #2
    12bc:	f003 e8a2 	blx	4404 <utee_get_time>
    12c0:	60f8      	str	r0, [r7, #12]
/home/meander/optee/optee_os/lib/libutee/tee_api.c:308
    12c2:	68fb      	ldr	r3, [r7, #12]
    12c4:	2b00      	cmp	r3, #0
    12c6:	d002      	beq.n	12ce <TEE_GetREETime+0x22>
/home/meander/optee/optee_os/lib/libutee/tee_api.c:309
    12c8:	68f8      	ldr	r0, [r7, #12]
    12ca:	f009 ff41 	bl	b150 <TEE_Panic>
/home/meander/optee/optee_os/lib/libutee/tee_api.c:310
    12ce:	bf00      	nop
    12d0:	f107 0710 	add.w	r7, r7, #16
    12d4:	46bd      	mov	sp, r7
    12d6:	bd80      	pop	{r7, pc}

000012d8 <TEE_Malloc>:
TEE_Malloc():
/home/meander/optee/optee_os/lib/libutee/tee_api.c:313
    12d8:	e96d 7e02 	strd	r7, lr, [sp, #-8]!
    12dc:	b082      	sub	sp, #8
    12de:	af00      	add	r7, sp, #0
    12e0:	6078      	str	r0, [r7, #4]
    12e2:	6039      	str	r1, [r7, #0]
/home/meander/optee/optee_os/lib/libutee/tee_api.c:314
    12e4:	6839      	ldr	r1, [r7, #0]
    12e6:	6878      	ldr	r0, [r7, #4]
    12e8:	f003 fcae 	bl	4c48 <tee_user_mem_alloc>
    12ec:	4603      	mov	r3, r0
/home/meander/optee/optee_os/lib/libutee/tee_api.c:315
    12ee:	4618      	mov	r0, r3
    12f0:	f107 0708 	add.w	r7, r7, #8
    12f4:	46bd      	mov	sp, r7
    12f6:	bd80      	pop	{r7, pc}

000012f8 <TEE_Realloc>:
TEE_Realloc():
/home/meander/optee/optee_os/lib/libutee/tee_api.c:318
    12f8:	e96d 7e02 	strd	r7, lr, [sp, #-8]!
    12fc:	b082      	sub	sp, #8
    12fe:	af00      	add	r7, sp, #0
    1300:	6078      	str	r0, [r7, #4]
    1302:	6039      	str	r1, [r7, #0]
/home/meander/optee/optee_os/lib/libutee/tee_api.c:323
    1304:	6839      	ldr	r1, [r7, #0]
    1306:	6878      	ldr	r0, [r7, #4]
    1308:	f003 fd42 	bl	4d90 <tee_user_mem_realloc>
    130c:	4603      	mov	r3, r0
/home/meander/optee/optee_os/lib/libutee/tee_api.c:324
    130e:	4618      	mov	r0, r3
    1310:	f107 0708 	add.w	r7, r7, #8
    1314:	46bd      	mov	sp, r7
    1316:	bd80      	pop	{r7, pc}

00001318 <TEE_Free>:
TEE_Free():
/home/meander/optee/optee_os/lib/libutee/tee_api.c:327
    1318:	e96d 7e02 	strd	r7, lr, [sp, #-8]!
    131c:	b082      	sub	sp, #8
    131e:	af00      	add	r7, sp, #0
    1320:	6078      	str	r0, [r7, #4]
/home/meander/optee/optee_os/lib/libutee/tee_api.c:328
    1322:	6878      	ldr	r0, [r7, #4]
    1324:	f003 fd8a 	bl	4e3c <tee_user_mem_free>
/home/meander/optee/optee_os/lib/libutee/tee_api.c:329
    1328:	bf00      	nop
    132a:	f107 0708 	add.w	r7, r7, #8
    132e:	46bd      	mov	sp, r7
    1330:	bd80      	pop	{r7, pc}

00001332 <TEE_CacheClean>:
TEE_CacheClean():
/home/meander/optee/optee_os/lib/libutee/tee_api.c:333
    1332:	e96d 7e02 	strd	r7, lr, [sp, #-8]!
    1336:	b082      	sub	sp, #8
    1338:	af00      	add	r7, sp, #0
    133a:	6078      	str	r0, [r7, #4]
    133c:	6039      	str	r1, [r7, #0]
/home/meander/optee/optee_os/lib/libutee/tee_api.c:334
    133e:	f04f 0200 	mov.w	r2, #0
    1342:	6839      	ldr	r1, [r7, #0]
    1344:	6878      	ldr	r0, [r7, #4]
    1346:	f003 eab4 	blx	48b0 <utee_cache_operation>
    134a:	4603      	mov	r3, r0
/home/meander/optee/optee_os/lib/libutee/tee_api.c:335
    134c:	4618      	mov	r0, r3
    134e:	f107 0708 	add.w	r7, r7, #8
    1352:	46bd      	mov	sp, r7
    1354:	bd80      	pop	{r7, pc}

00001356 <TEE_CacheFlush>:
TEE_CacheFlush():
/home/meander/optee/optee_os/lib/libutee/tee_api.c:337
    1356:	e96d 7e02 	strd	r7, lr, [sp, #-8]!
    135a:	b082      	sub	sp, #8
    135c:	af00      	add	r7, sp, #0
    135e:	6078      	str	r0, [r7, #4]
    1360:	6039      	str	r1, [r7, #0]
/home/meander/optee/optee_os/lib/libutee/tee_api.c:338
    1362:	f04f 0201 	mov.w	r2, #1
    1366:	6839      	ldr	r1, [r7, #0]
    1368:	6878      	ldr	r0, [r7, #4]
    136a:	f003 eaa2 	blx	48b0 <utee_cache_operation>
    136e:	4603      	mov	r3, r0
/home/meander/optee/optee_os/lib/libutee/tee_api.c:339
    1370:	4618      	mov	r0, r3
    1372:	f107 0708 	add.w	r7, r7, #8
    1376:	46bd      	mov	sp, r7
    1378:	bd80      	pop	{r7, pc}

0000137a <TEE_CacheInvalidate>:
TEE_CacheInvalidate():
/home/meander/optee/optee_os/lib/libutee/tee_api.c:342
    137a:	e96d 7e02 	strd	r7, lr, [sp, #-8]!
    137e:	b082      	sub	sp, #8
    1380:	af00      	add	r7, sp, #0
    1382:	6078      	str	r0, [r7, #4]
    1384:	6039      	str	r1, [r7, #0]
/home/meander/optee/optee_os/lib/libutee/tee_api.c:343
    1386:	f04f 0202 	mov.w	r2, #2
    138a:	6839      	ldr	r1, [r7, #0]
    138c:	6878      	ldr	r0, [r7, #4]
    138e:	f003 ea90 	blx	48b0 <utee_cache_operation>
    1392:	4603      	mov	r3, r0
/home/meander/optee/optee_os/lib/libutee/tee_api.c:344
    1394:	4618      	mov	r0, r3
    1396:	f107 0708 	add.w	r7, r7, #8
    139a:	46bd      	mov	sp, r7
    139c:	bd80      	pop	{r7, pc}
    139e:	bf00      	nop

000013a0 <TEE_AllocateOperation>:
TEE_AllocateOperation():
/home/meander/optee/optee_os/lib/libutee/tee_api_operations.c:59
    13a0:	e96d 7e02 	strd	r7, lr, [sp, #-8]!
    13a4:	b090      	sub	sp, #64	; 0x40
    13a6:	af02      	add	r7, sp, #8
    13a8:	60f8      	str	r0, [r7, #12]
    13aa:	60b9      	str	r1, [r7, #8]
    13ac:	607a      	str	r2, [r7, #4]
    13ae:	603b      	str	r3, [r7, #0]
/home/meander/optee/optee_os/lib/libutee/tee_api_operations.c:61
    13b0:	f04f 0300 	mov.w	r3, #0
    13b4:	61bb      	str	r3, [r7, #24]
/home/meander/optee/optee_os/lib/libutee/tee_api_operations.c:62
    13b6:	f04f 0300 	mov.w	r3, #0
    13ba:	633b      	str	r3, [r7, #48]	; 0x30
/home/meander/optee/optee_os/lib/libutee/tee_api_operations.c:63
    13bc:	f04f 0301 	mov.w	r3, #1
    13c0:	62fb      	str	r3, [r7, #44]	; 0x2c
/home/meander/optee/optee_os/lib/libutee/tee_api_operations.c:65
    13c2:	f04f 0300 	mov.w	r3, #0
    13c6:	f887 3027 	strb.w	r3, [r7, #39]	; 0x27
/home/meander/optee/optee_os/lib/libutee/tee_api_operations.c:66
    13ca:	f04f 0300 	mov.w	r3, #0
    13ce:	f887 3026 	strb.w	r3, [r7, #38]	; 0x26
/home/meander/optee/optee_os/lib/libutee/tee_api_operations.c:68
    13d2:	68fb      	ldr	r3, [r7, #12]
    13d4:	2b00      	cmp	r3, #0
    13d6:	d103      	bne.n	13e0 <TEE_AllocateOperation+0x40>
/home/meander/optee/optee_os/lib/libutee/tee_api_operations.c:69
    13d8:	f04f 0000 	mov.w	r0, #0
    13dc:	f009 feb8 	bl	b150 <TEE_Panic>
/home/meander/optee/optee_os/lib/libutee/tee_api_operations.c:71
    13e0:	68ba      	ldr	r2, [r7, #8]
    13e2:	f44f 6382 	mov.w	r3, #1040	; 0x410
    13e6:	f2c1 0300 	movt	r3, #4096	; 0x1000
    13ea:	429a      	cmp	r2, r3
    13ec:	d102      	bne.n	13f4 <TEE_AllocateOperation+0x54>
/home/meander/optee/optee_os/lib/libutee/tee_api_operations.c:72
    13ee:	f44f 2300 	mov.w	r3, #524288	; 0x80000
    13f2:	633b      	str	r3, [r7, #48]	; 0x30
/home/meander/optee/optee_os/lib/libutee/tee_api_operations.c:75
    13f4:	68bb      	ldr	r3, [r7, #8]
    13f6:	f244 1231 	movw	r2, #16689	; 0x4131
    13fa:	f2c7 0200 	movt	r2, #28672	; 0x7000
    13fe:	4293      	cmp	r3, r2
    1400:	f000 8084 	beq.w	150c <TEE_AllocateOperation+0x16c>
    1404:	f244 1231 	movw	r2, #16689	; 0x4131
    1408:	f2c7 0200 	movt	r2, #28672	; 0x7000
    140c:	4293      	cmp	r3, r2
    140e:	d82b      	bhi.n	1468 <TEE_AllocateOperation+0xc8>
    1410:	f242 1231 	movw	r2, #8497	; 0x2131
    1414:	f2c7 0200 	movt	r2, #28672	; 0x7000
    1418:	4293      	cmp	r3, r2
    141a:	d051      	beq.n	14c0 <TEE_AllocateOperation+0x120>
    141c:	f242 1231 	movw	r2, #8497	; 0x2131
    1420:	f2c7 0200 	movt	r2, #28672	; 0x7000
    1424:	4293      	cmp	r3, r2
    1426:	d80c      	bhi.n	1442 <TEE_AllocateOperation+0xa2>
    1428:	f241 0241 	movw	r2, #4161	; 0x1041
    142c:	f2c7 0200 	movt	r2, #28672	; 0x7000
    1430:	4293      	cmp	r3, r2
    1432:	d078      	beq.n	1526 <TEE_AllocateOperation+0x186>
    1434:	f242 0241 	movw	r2, #8257	; 0x2041
    1438:	f2c7 0200 	movt	r2, #28672	; 0x7000
    143c:	4293      	cmp	r3, r2
    143e:	d07a      	beq.n	1536 <TEE_AllocateOperation+0x196>
/home/meander/optee/optee_os/lib/libutee/tee_api_operations.c:126
    1440:	e0ac      	b.n	159c <TEE_AllocateOperation+0x1fc>
/home/meander/optee/optee_os/lib/libutee/tee_api_operations.c:75
    1442:	f243 1231 	movw	r2, #12593	; 0x3131
    1446:	f2c7 0200 	movt	r2, #28672	; 0x7000
    144a:	4293      	cmp	r3, r2
    144c:	d055      	beq.n	14fa <TEE_AllocateOperation+0x15a>
    144e:	f244 0241 	movw	r2, #16449	; 0x4041
    1452:	f2c7 0200 	movt	r2, #28672	; 0x7000
    1456:	4293      	cmp	r3, r2
    1458:	d07e      	beq.n	1558 <TEE_AllocateOperation+0x1b8>
    145a:	f243 0241 	movw	r2, #12353	; 0x3041
    145e:	f2c7 0200 	movt	r2, #28672	; 0x7000
    1462:	4293      	cmp	r3, r2
    1464:	d06f      	beq.n	1546 <TEE_AllocateOperation+0x1a6>
/home/meander/optee/optee_os/lib/libutee/tee_api_operations.c:126
    1466:	e099      	b.n	159c <TEE_AllocateOperation+0x1fc>
/home/meander/optee/optee_os/lib/libutee/tee_api_operations.c:75
    1468:	f242 0242 	movw	r2, #8258	; 0x2042
    146c:	f2c8 0200 	movt	r2, #32768	; 0x8000
    1470:	4293      	cmp	r3, r2
    1472:	d060      	beq.n	1536 <TEE_AllocateOperation+0x196>
    1474:	f242 0242 	movw	r2, #8258	; 0x2042
    1478:	f2c8 0200 	movt	r2, #32768	; 0x8000
    147c:	4293      	cmp	r3, r2
    147e:	d80c      	bhi.n	149a <TEE_AllocateOperation+0xfa>
    1480:	f245 0241 	movw	r2, #20545	; 0x5041
    1484:	f2c7 0200 	movt	r2, #28672	; 0x7000
    1488:	4293      	cmp	r3, r2
    148a:	d06e      	beq.n	156a <TEE_AllocateOperation+0x1ca>
    148c:	f241 0242 	movw	r2, #4162	; 0x1042
    1490:	f2c8 0200 	movt	r2, #32768	; 0x8000
    1494:	4293      	cmp	r3, r2
    1496:	d046      	beq.n	1526 <TEE_AllocateOperation+0x186>
/home/meander/optee/optee_os/lib/libutee/tee_api_operations.c:126
    1498:	e080      	b.n	159c <TEE_AllocateOperation+0x1fc>
/home/meander/optee/optee_os/lib/libutee/tee_api_operations.c:75
    149a:	f244 0242 	movw	r2, #16450	; 0x4042
    149e:	f2c8 0200 	movt	r2, #32768	; 0x8000
    14a2:	4293      	cmp	r3, r2
    14a4:	d058      	beq.n	1558 <TEE_AllocateOperation+0x1b8>
    14a6:	f245 0242 	movw	r2, #20546	; 0x5042
    14aa:	f2c8 0200 	movt	r2, #32768	; 0x8000
    14ae:	4293      	cmp	r3, r2
    14b0:	d05b      	beq.n	156a <TEE_AllocateOperation+0x1ca>
    14b2:	f243 0242 	movw	r2, #12354	; 0x3042
    14b6:	f2c8 0200 	movt	r2, #32768	; 0x8000
    14ba:	4293      	cmp	r3, r2
    14bc:	d043      	beq.n	1546 <TEE_AllocateOperation+0x1a6>
/home/meander/optee/optee_os/lib/libutee/tee_api_operations.c:126
    14be:	e06d      	b.n	159c <TEE_AllocateOperation+0x1fc>
/home/meander/optee/optee_os/lib/libutee/tee_api_operations.c:77
    14c0:	683b      	ldr	r3, [r7, #0]
    14c2:	f5b3 7f00 	cmp.w	r3, #512	; 0x200
    14c6:	d205      	bcs.n	14d4 <TEE_AllocateOperation+0x134>
/home/meander/optee/optee_os/lib/libutee/tee_api_operations.c:78
    14c8:	f04f 030a 	mov.w	r3, #10
    14cc:	f6cf 73ff 	movt	r3, #65535	; 0xffff
    14d0:	f000 bc01 	b.w	1cd6 <TEE_AllocateOperation+0x936>
/home/meander/optee/optee_os/lib/libutee/tee_api_operations.c:79
    14d4:	683b      	ldr	r3, [r7, #0]
    14d6:	f5b3 6f80 	cmp.w	r3, #1024	; 0x400
    14da:	d904      	bls.n	14e6 <TEE_AllocateOperation+0x146>
/home/meander/optee/optee_os/lib/libutee/tee_api_operations.c:80
    14dc:	f04f 030a 	mov.w	r3, #10
    14e0:	f6cf 73ff 	movt	r3, #65535	; 0xffff
    14e4:	e3f7      	b.n	1cd6 <TEE_AllocateOperation+0x936>
/home/meander/optee/optee_os/lib/libutee/tee_api_operations.c:81
    14e6:	683b      	ldr	r3, [r7, #0]
    14e8:	f003 033f 	and.w	r3, r3, #63	; 0x3f
    14ec:	2b00      	cmp	r3, #0
    14ee:	d046      	beq.n	157e <TEE_AllocateOperation+0x1de>
/home/meander/optee/optee_os/lib/libutee/tee_api_operations.c:82
    14f0:	f04f 030a 	mov.w	r3, #10
    14f4:	f6cf 73ff 	movt	r3, #65535	; 0xffff
    14f8:	e3ed      	b.n	1cd6 <TEE_AllocateOperation+0x936>
/home/meander/optee/optee_os/lib/libutee/tee_api_operations.c:86
    14fa:	683b      	ldr	r3, [r7, #0]
    14fc:	f5b3 6f00 	cmp.w	r3, #2048	; 0x800
    1500:	d03f      	beq.n	1582 <TEE_AllocateOperation+0x1e2>
/home/meander/optee/optee_os/lib/libutee/tee_api_operations.c:87
    1502:	f04f 030a 	mov.w	r3, #10
    1506:	f6cf 73ff 	movt	r3, #65535	; 0xffff
    150a:	e3e4      	b.n	1cd6 <TEE_AllocateOperation+0x936>
/home/meander/optee/optee_os/lib/libutee/tee_api_operations.c:91
    150c:	683b      	ldr	r3, [r7, #0]
    150e:	f5b3 6f00 	cmp.w	r3, #2048	; 0x800
    1512:	d038      	beq.n	1586 <TEE_AllocateOperation+0x1e6>
/home/meander/optee/optee_os/lib/libutee/tee_api_operations.c:91 (discriminator 1)
    1514:	683b      	ldr	r3, [r7, #0]
    1516:	f5b3 6f40 	cmp.w	r3, #3072	; 0xc00
    151a:	d034      	beq.n	1586 <TEE_AllocateOperation+0x1e6>
/home/meander/optee/optee_os/lib/libutee/tee_api_operations.c:92
    151c:	f04f 030a 	mov.w	r3, #10
    1520:	f6cf 73ff 	movt	r3, #65535	; 0xffff
    1524:	e3d7      	b.n	1cd6 <TEE_AllocateOperation+0x936>
/home/meander/optee/optee_os/lib/libutee/tee_api_operations.c:97
    1526:	683b      	ldr	r3, [r7, #0]
    1528:	2bc0      	cmp	r3, #192	; 0xc0
    152a:	d02e      	beq.n	158a <TEE_AllocateOperation+0x1ea>
/home/meander/optee/optee_os/lib/libutee/tee_api_operations.c:98
    152c:	f04f 030a 	mov.w	r3, #10
    1530:	f6cf 73ff 	movt	r3, #65535	; 0xffff
    1534:	e3cf      	b.n	1cd6 <TEE_AllocateOperation+0x936>
/home/meander/optee/optee_os/lib/libutee/tee_api_operations.c:103
    1536:	683b      	ldr	r3, [r7, #0]
    1538:	2be0      	cmp	r3, #224	; 0xe0
    153a:	d028      	beq.n	158e <TEE_AllocateOperation+0x1ee>
/home/meander/optee/optee_os/lib/libutee/tee_api_operations.c:104
    153c:	f04f 030a 	mov.w	r3, #10
    1540:	f6cf 73ff 	movt	r3, #65535	; 0xffff
    1544:	e3c7      	b.n	1cd6 <TEE_AllocateOperation+0x936>
/home/meander/optee/optee_os/lib/libutee/tee_api_operations.c:109
    1546:	683b      	ldr	r3, [r7, #0]
    1548:	f5b3 7f80 	cmp.w	r3, #256	; 0x100
    154c:	d021      	beq.n	1592 <TEE_AllocateOperation+0x1f2>
/home/meander/optee/optee_os/lib/libutee/tee_api_operations.c:110
    154e:	f04f 030a 	mov.w	r3, #10
    1552:	f6cf 73ff 	movt	r3, #65535	; 0xffff
    1556:	e3be      	b.n	1cd6 <TEE_AllocateOperation+0x936>
/home/meander/optee/optee_os/lib/libutee/tee_api_operations.c:115
    1558:	683b      	ldr	r3, [r7, #0]
    155a:	f5b3 7fc0 	cmp.w	r3, #384	; 0x180
    155e:	d01a      	beq.n	1596 <TEE_AllocateOperation+0x1f6>
/home/meander/optee/optee_os/lib/libutee/tee_api_operations.c:116
    1560:	f04f 030a 	mov.w	r3, #10
    1564:	f6cf 73ff 	movt	r3, #65535	; 0xffff
    1568:	e3b5      	b.n	1cd6 <TEE_AllocateOperation+0x936>
/home/meander/optee/optee_os/lib/libutee/tee_api_operations.c:121
    156a:	683b      	ldr	r3, [r7, #0]
    156c:	f240 2209 	movw	r2, #521	; 0x209
    1570:	4293      	cmp	r3, r2
    1572:	d012      	beq.n	159a <TEE_AllocateOperation+0x1fa>
/home/meander/optee/optee_os/lib/libutee/tee_api_operations.c:122
    1574:	f04f 030a 	mov.w	r3, #10
    1578:	f6cf 73ff 	movt	r3, #65535	; 0xffff
    157c:	e3ab      	b.n	1cd6 <TEE_AllocateOperation+0x936>
/home/meander/optee/optee_os/lib/libutee/tee_api_operations.c:83
    157e:	bf00      	nop
    1580:	e00c      	b.n	159c <TEE_AllocateOperation+0x1fc>
/home/meander/optee/optee_os/lib/libutee/tee_api_operations.c:88
    1582:	bf00      	nop
    1584:	e00a      	b.n	159c <TEE_AllocateOperation+0x1fc>
/home/meander/optee/optee_os/lib/libutee/tee_api_operations.c:93
    1586:	bf00      	nop
    1588:	e008      	b.n	159c <TEE_AllocateOperation+0x1fc>
/home/meander/optee/optee_os/lib/libutee/tee_api_operations.c:99
    158a:	bf00      	nop
    158c:	e006      	b.n	159c <TEE_AllocateOperation+0x1fc>
/home/meander/optee/optee_os/lib/libutee/tee_api_operations.c:105
    158e:	bf00      	nop
    1590:	e004      	b.n	159c <TEE_AllocateOperation+0x1fc>
/home/meander/optee/optee_os/lib/libutee/tee_api_operations.c:111
    1592:	bf00      	nop
    1594:	e002      	b.n	159c <TEE_AllocateOperation+0x1fc>
/home/meander/optee/optee_os/lib/libutee/tee_api_operations.c:117
    1596:	bf00      	nop
    1598:	e000      	b.n	159c <TEE_AllocateOperation+0x1fc>
/home/meander/optee/optee_os/lib/libutee/tee_api_operations.c:123
    159a:	bf00      	nop
/home/meander/optee/optee_os/lib/libutee/tee_api_operations.c:130
    159c:	68bb      	ldr	r3, [r7, #8]
    159e:	f242 1231 	movw	r2, #8497	; 0x2131
    15a2:	f2c7 0200 	movt	r2, #28672	; 0x7000
    15a6:	4293      	cmp	r3, r2
    15a8:	f000 822c 	beq.w	1a04 <TEE_AllocateOperation+0x664>
    15ac:	f242 1231 	movw	r2, #8497	; 0x2131
    15b0:	f2c7 0200 	movt	r2, #28672	; 0x7000
    15b4:	4293      	cmp	r3, r2
    15b6:	f200 80fe 	bhi.w	17b6 <TEE_AllocateOperation+0x416>
    15ba:	f240 5211 	movw	r2, #1297	; 0x511
    15be:	f2c3 0200 	movt	r2, #12288	; 0x3000
    15c2:	4293      	cmp	r3, r2
    15c4:	d86d      	bhi.n	16a2 <TEE_AllocateOperation+0x302>
    15c6:	f44f 62a2 	mov.w	r2, #1296	; 0x510
    15ca:	f2c3 0200 	movt	r2, #12288	; 0x3000
    15ce:	4293      	cmp	r3, r2
    15d0:	f080 827d 	bcs.w	1ace <TEE_AllocateOperation+0x72e>
    15d4:	f44f 7204 	mov.w	r2, #528	; 0x210
    15d8:	f2c1 0200 	movt	r2, #4096	; 0x1000
    15dc:	4293      	cmp	r3, r2
    15de:	f000 81fe 	beq.w	19de <TEE_AllocateOperation+0x63e>
    15e2:	f44f 7204 	mov.w	r2, #528	; 0x210
    15e6:	f2c1 0200 	movt	r2, #4096	; 0x1000
    15ea:	4293      	cmp	r3, r2
    15ec:	d82a      	bhi.n	1644 <TEE_AllocateOperation+0x2a4>
    15ee:	f04f 0213 	mov.w	r2, #19
    15f2:	f2c1 0200 	movt	r2, #4096	; 0x1000
    15f6:	4293      	cmp	r3, r2
    15f8:	f000 81e6 	beq.w	19c8 <TEE_AllocateOperation+0x628>
    15fc:	f04f 0213 	mov.w	r2, #19
    1600:	f2c1 0200 	movt	r2, #4096	; 0x1000
    1604:	4293      	cmp	r3, r2
    1606:	d807      	bhi.n	1618 <TEE_AllocateOperation+0x278>
    1608:	f103 4370 	add.w	r3, r3, #4026531840	; 0xf0000000
    160c:	f1a3 0310 	sub.w	r3, r3, #16
    1610:	2b01      	cmp	r3, #1
    1612:	f200 8268 	bhi.w	1ae6 <TEE_AllocateOperation+0x746>
    1616:	e1d7      	b.n	19c8 <TEE_AllocateOperation+0x628>
    1618:	f44f 7288 	mov.w	r2, #272	; 0x110
    161c:	f2c1 0200 	movt	r2, #4096	; 0x1000
    1620:	4293      	cmp	r3, r2
    1622:	f0c0 8260 	bcc.w	1ae6 <TEE_AllocateOperation+0x746>
    1626:	f240 1211 	movw	r2, #273	; 0x111
    162a:	f2c1 0200 	movt	r2, #4096	; 0x1000
    162e:	4293      	cmp	r3, r2
    1630:	f240 81ca 	bls.w	19c8 <TEE_AllocateOperation+0x628>
    1634:	f240 1213 	movw	r2, #275	; 0x113
    1638:	f2c1 0200 	movt	r2, #4096	; 0x1000
    163c:	4293      	cmp	r3, r2
    163e:	f000 81c3 	beq.w	19c8 <TEE_AllocateOperation+0x628>
    1642:	e250      	b.n	1ae6 <TEE_AllocateOperation+0x746>
    1644:	f04f 0206 	mov.w	r2, #6
    1648:	f2c3 0200 	movt	r2, #12288	; 0x3000
    164c:	4293      	cmp	r3, r2
    164e:	d812      	bhi.n	1676 <TEE_AllocateOperation+0x2d6>
    1650:	f1b3 5f40 	cmp.w	r3, #805306368	; 0x30000000
    1654:	f200 823b 	bhi.w	1ace <TEE_AllocateOperation+0x72e>
    1658:	f44f 7244 	mov.w	r2, #784	; 0x310
    165c:	f2c1 0200 	movt	r2, #4096	; 0x1000
    1660:	4293      	cmp	r3, r2
    1662:	f000 81ad 	beq.w	19c0 <TEE_AllocateOperation+0x620>
    1666:	f44f 6282 	mov.w	r2, #1040	; 0x410
    166a:	f2c1 0200 	movt	r2, #4096	; 0x1000
    166e:	4293      	cmp	r3, r2
    1670:	f000 81a6 	beq.w	19c0 <TEE_AllocateOperation+0x620>
    1674:	e237      	b.n	1ae6 <TEE_AllocateOperation+0x746>
    1676:	f44f 7288 	mov.w	r2, #272	; 0x110
    167a:	f2c3 0200 	movt	r2, #12288	; 0x3000
    167e:	4293      	cmp	r3, r2
    1680:	f0c0 8231 	bcc.w	1ae6 <TEE_AllocateOperation+0x746>
    1684:	f240 1211 	movw	r2, #273	; 0x111
    1688:	f2c3 0200 	movt	r2, #12288	; 0x3000
    168c:	4293      	cmp	r3, r2
    168e:	f240 821e 	bls.w	1ace <TEE_AllocateOperation+0x72e>
    1692:	f240 1213 	movw	r2, #275	; 0x113
    1696:	f2c3 0200 	movt	r2, #12288	; 0x3000
    169a:	4293      	cmp	r3, r2
    169c:	f000 8217 	beq.w	1ace <TEE_AllocateOperation+0x72e>
    16a0:	e221      	b.n	1ae6 <TEE_AllocateOperation+0x746>
    16a2:	f44f 7298 	mov.w	r2, #304	; 0x130
    16a6:	f2c6 0200 	movt	r2, #24576	; 0x6000
    16aa:	4293      	cmp	r3, r2
    16ac:	f000 81c1 	beq.w	1a32 <TEE_AllocateOperation+0x692>
    16b0:	f44f 7298 	mov.w	r2, #304	; 0x130
    16b4:	f2c6 0200 	movt	r2, #24576	; 0x6000
    16b8:	4293      	cmp	r3, r2
    16ba:	d835      	bhi.n	1728 <TEE_AllocateOperation+0x388>
    16bc:	f44f 6201 	mov.w	r2, #2064	; 0x810
    16c0:	f2c4 0200 	movt	r2, #16384	; 0x4000
    16c4:	4293      	cmp	r3, r2
    16c6:	f000 818a 	beq.w	19de <TEE_AllocateOperation+0x63e>
    16ca:	f44f 6201 	mov.w	r2, #2064	; 0x810
    16ce:	f2c4 0200 	movt	r2, #16384	; 0x4000
    16d2:	4293      	cmp	r3, r2
    16d4:	d815      	bhi.n	1702 <TEE_AllocateOperation+0x362>
    16d6:	f44f 62c2 	mov.w	r2, #1552	; 0x610
    16da:	f2c3 0200 	movt	r2, #12288	; 0x3000
    16de:	4293      	cmp	r3, r2
    16e0:	f000 81f5 	beq.w	1ace <TEE_AllocateOperation+0x72e>
    16e4:	f44f 62e2 	mov.w	r2, #1808	; 0x710
    16e8:	f2c4 0200 	movt	r2, #16384	; 0x4000
    16ec:	4293      	cmp	r3, r2
    16ee:	f000 816b 	beq.w	19c8 <TEE_AllocateOperation+0x628>
    16f2:	f240 5213 	movw	r2, #1299	; 0x513
    16f6:	f2c3 0200 	movt	r2, #12288	; 0x3000
    16fa:	4293      	cmp	r3, r2
    16fc:	f000 81e7 	beq.w	1ace <TEE_AllocateOperation+0x72e>
    1700:	e1f1      	b.n	1ae6 <TEE_AllocateOperation+0x746>
    1702:	f1b3 4fa0 	cmp.w	r3, #1342177280	; 0x50000000
    1706:	f240 81ee 	bls.w	1ae6 <TEE_AllocateOperation+0x746>
    170a:	f04f 0206 	mov.w	r2, #6
    170e:	f2c5 0200 	movt	r2, #20480	; 0x5000
    1712:	4293      	cmp	r3, r2
    1714:	f240 81cb 	bls.w	1aae <TEE_AllocateOperation+0x70e>
    1718:	f04f 0230 	mov.w	r2, #48	; 0x30
    171c:	f2c6 0200 	movt	r2, #24576	; 0x6000
    1720:	4293      	cmp	r3, r2
    1722:	f000 819d 	beq.w	1a60 <TEE_AllocateOperation+0x6c0>
    1726:	e1de      	b.n	1ae6 <TEE_AllocateOperation+0x746>
    1728:	f44f 720c 	mov.w	r2, #560	; 0x230
    172c:	f2c6 0251 	movt	r2, #24657	; 0x6051
    1730:	4293      	cmp	r3, r2
    1732:	f000 817e 	beq.w	1a32 <TEE_AllocateOperation+0x692>
    1736:	f44f 720c 	mov.w	r2, #560	; 0x230
    173a:	f2c6 0251 	movt	r2, #24657	; 0x6051
    173e:	4293      	cmp	r3, r2
    1740:	d815      	bhi.n	176e <TEE_AllocateOperation+0x3ce>
    1742:	f44f 720c 	mov.w	r2, #560	; 0x230
    1746:	f2c6 0231 	movt	r2, #24625	; 0x6031
    174a:	4293      	cmp	r3, r2
    174c:	f000 8171 	beq.w	1a32 <TEE_AllocateOperation+0x692>
    1750:	f44f 720c 	mov.w	r2, #560	; 0x230
    1754:	f2c6 0241 	movt	r2, #24641	; 0x6041
    1758:	4293      	cmp	r3, r2
    175a:	f000 816a 	beq.w	1a32 <TEE_AllocateOperation+0x692>
    175e:	f44f 720c 	mov.w	r2, #560	; 0x230
    1762:	f2c6 0221 	movt	r2, #24609	; 0x6021
    1766:	4293      	cmp	r3, r2
    1768:	f000 8163 	beq.w	1a32 <TEE_AllocateOperation+0x692>
    176c:	e1bb      	b.n	1ae6 <TEE_AllocateOperation+0x746>
    176e:	f241 0241 	movw	r2, #4161	; 0x1041
    1772:	f2c7 0200 	movt	r2, #28672	; 0x7000
    1776:	4293      	cmp	r3, r2
    1778:	f000 8144 	beq.w	1a04 <TEE_AllocateOperation+0x664>
    177c:	f241 0241 	movw	r2, #4161	; 0x1041
    1780:	f2c7 0200 	movt	r2, #28672	; 0x7000
    1784:	4293      	cmp	r3, r2
    1786:	d807      	bhi.n	1798 <TEE_AllocateOperation+0x3f8>
    1788:	f44f 720c 	mov.w	r2, #560	; 0x230
    178c:	f2c6 0261 	movt	r2, #24673	; 0x6061
    1790:	4293      	cmp	r3, r2
    1792:	f000 814e 	beq.w	1a32 <TEE_AllocateOperation+0x692>
    1796:	e1a6      	b.n	1ae6 <TEE_AllocateOperation+0x746>
    1798:	f641 0230 	movw	r2, #6192	; 0x1830
    179c:	f2c7 0200 	movt	r2, #28672	; 0x7000
    17a0:	4293      	cmp	r3, r2
    17a2:	f000 812f 	beq.w	1a04 <TEE_AllocateOperation+0x664>
    17a6:	f242 0241 	movw	r2, #8257	; 0x2041
    17aa:	f2c7 0200 	movt	r2, #28672	; 0x7000
    17ae:	4293      	cmp	r3, r2
    17b0:	f000 8128 	beq.w	1a04 <TEE_AllocateOperation+0x664>
    17b4:	e197      	b.n	1ae6 <TEE_AllocateOperation+0x746>
    17b6:	f04f 0232 	mov.w	r2, #50	; 0x32
    17ba:	f2c8 0200 	movt	r2, #32768	; 0x8000
    17be:	4293      	cmp	r3, r2
    17c0:	f000 8165 	beq.w	1a8e <TEE_AllocateOperation+0x6ee>
    17c4:	f04f 0232 	mov.w	r2, #50	; 0x32
    17c8:	f2c8 0200 	movt	r2, #32768	; 0x8000
    17cc:	4293      	cmp	r3, r2
    17ce:	d87e      	bhi.n	18ce <TEE_AllocateOperation+0x52e>
    17d0:	f245 0241 	movw	r2, #20545	; 0x5041
    17d4:	f2c7 0200 	movt	r2, #28672	; 0x7000
    17d8:	4293      	cmp	r3, r2
    17da:	f000 8113 	beq.w	1a04 <TEE_AllocateOperation+0x664>
    17de:	f245 0241 	movw	r2, #20545	; 0x5041
    17e2:	f2c7 0200 	movt	r2, #28672	; 0x7000
    17e6:	4293      	cmp	r3, r2
    17e8:	d838      	bhi.n	185c <TEE_AllocateOperation+0x4bc>
    17ea:	f643 0230 	movw	r2, #14384	; 0x3830
    17ee:	f2c7 0200 	movt	r2, #28672	; 0x7000
    17f2:	4293      	cmp	r3, r2
    17f4:	f000 8106 	beq.w	1a04 <TEE_AllocateOperation+0x664>
    17f8:	f643 0230 	movw	r2, #14384	; 0x3830
    17fc:	f2c7 0200 	movt	r2, #28672	; 0x7000
    1800:	4293      	cmp	r3, r2
    1802:	d815      	bhi.n	1830 <TEE_AllocateOperation+0x490>
    1804:	f243 0241 	movw	r2, #12353	; 0x3041
    1808:	f2c7 0200 	movt	r2, #28672	; 0x7000
    180c:	4293      	cmp	r3, r2
    180e:	f000 80f9 	beq.w	1a04 <TEE_AllocateOperation+0x664>
    1812:	f243 1231 	movw	r2, #12593	; 0x3131
    1816:	f2c7 0200 	movt	r2, #28672	; 0x7000
    181a:	4293      	cmp	r3, r2
    181c:	f000 80f2 	beq.w	1a04 <TEE_AllocateOperation+0x664>
    1820:	f642 0230 	movw	r2, #10288	; 0x2830
    1824:	f2c7 0200 	movt	r2, #28672	; 0x7000
    1828:	4293      	cmp	r3, r2
    182a:	f000 80eb 	beq.w	1a04 <TEE_AllocateOperation+0x664>
    182e:	e15a      	b.n	1ae6 <TEE_AllocateOperation+0x746>
    1830:	f244 1231 	movw	r2, #16689	; 0x4131
    1834:	f2c7 0200 	movt	r2, #28672	; 0x7000
    1838:	4293      	cmp	r3, r2
    183a:	f000 80e3 	beq.w	1a04 <TEE_AllocateOperation+0x664>
    183e:	f644 0230 	movw	r2, #18480	; 0x4830
    1842:	f2c7 0200 	movt	r2, #28672	; 0x7000
    1846:	4293      	cmp	r3, r2
    1848:	f000 80dc 	beq.w	1a04 <TEE_AllocateOperation+0x664>
    184c:	f244 0241 	movw	r2, #16449	; 0x4041
    1850:	f2c7 0200 	movt	r2, #28672	; 0x7000
    1854:	4293      	cmp	r3, r2
    1856:	f000 80d5 	beq.w	1a04 <TEE_AllocateOperation+0x664>
    185a:	e144      	b.n	1ae6 <TEE_AllocateOperation+0x746>
    185c:	f643 1230 	movw	r2, #14640	; 0x3930
    1860:	f2c7 0231 	movt	r2, #28721	; 0x7031
    1864:	4293      	cmp	r3, r2
    1866:	f000 80cd 	beq.w	1a04 <TEE_AllocateOperation+0x664>
    186a:	f643 1230 	movw	r2, #14640	; 0x3930
    186e:	f2c7 0231 	movt	r2, #28721	; 0x7031
    1872:	4293      	cmp	r3, r2
    1874:	d815      	bhi.n	18a2 <TEE_AllocateOperation+0x502>
    1876:	f646 0230 	movw	r2, #26672	; 0x6830
    187a:	f2c7 0200 	movt	r2, #28672	; 0x7000
    187e:	4293      	cmp	r3, r2
    1880:	f000 80c0 	beq.w	1a04 <TEE_AllocateOperation+0x664>
    1884:	f642 1230 	movw	r2, #10544	; 0x2930
    1888:	f2c7 0221 	movt	r2, #28705	; 0x7021
    188c:	4293      	cmp	r3, r2
    188e:	f000 80b9 	beq.w	1a04 <TEE_AllocateOperation+0x664>
    1892:	f645 0230 	movw	r2, #22576	; 0x5830
    1896:	f2c7 0200 	movt	r2, #28672	; 0x7000
    189a:	4293      	cmp	r3, r2
    189c:	f000 80b2 	beq.w	1a04 <TEE_AllocateOperation+0x664>
    18a0:	e121      	b.n	1ae6 <TEE_AllocateOperation+0x746>
    18a2:	f645 1230 	movw	r2, #22832	; 0x5930
    18a6:	f2c7 0251 	movt	r2, #28753	; 0x7051
    18aa:	4293      	cmp	r3, r2
    18ac:	f000 80aa 	beq.w	1a04 <TEE_AllocateOperation+0x664>
    18b0:	f646 1230 	movw	r2, #26928	; 0x6930
    18b4:	f2c7 0261 	movt	r2, #28769	; 0x7061
    18b8:	4293      	cmp	r3, r2
    18ba:	f000 80a3 	beq.w	1a04 <TEE_AllocateOperation+0x664>
    18be:	f644 1230 	movw	r2, #18736	; 0x4930
    18c2:	f2c7 0241 	movt	r2, #28737	; 0x7041
    18c6:	4293      	cmp	r3, r2
    18c8:	f000 809c 	beq.w	1a04 <TEE_AllocateOperation+0x664>
    18cc:	e10b      	b.n	1ae6 <TEE_AllocateOperation+0x746>
    18ce:	f243 02c1 	movw	r2, #12481	; 0x30c1
    18d2:	f2c8 0200 	movt	r2, #32768	; 0x8000
    18d6:	4293      	cmp	r3, r2
    18d8:	d838      	bhi.n	194c <TEE_AllocateOperation+0x5ac>
    18da:	f44f 5243 	mov.w	r2, #12480	; 0x30c0
    18de:	f2c8 0200 	movt	r2, #32768	; 0x8000
    18e2:	4293      	cmp	r3, r2
    18e4:	f080 80d3 	bcs.w	1a8e <TEE_AllocateOperation+0x6ee>
    18e8:	f242 0242 	movw	r2, #8258	; 0x2042
    18ec:	f2c8 0200 	movt	r2, #32768	; 0x8000
    18f0:	4293      	cmp	r3, r2
    18f2:	f000 80cc 	beq.w	1a8e <TEE_AllocateOperation+0x6ee>
    18f6:	f242 0242 	movw	r2, #8258	; 0x2042
    18fa:	f2c8 0200 	movt	r2, #32768	; 0x8000
    18fe:	4293      	cmp	r3, r2
    1900:	d80e      	bhi.n	1920 <TEE_AllocateOperation+0x580>
    1902:	f241 0242 	movw	r2, #4162	; 0x1042
    1906:	f2c8 0200 	movt	r2, #32768	; 0x8000
    190a:	4293      	cmp	r3, r2
    190c:	f000 80bf 	beq.w	1a8e <TEE_AllocateOperation+0x6ee>
    1910:	f44f 5286 	mov.w	r2, #4288	; 0x10c0
    1914:	f2c8 0200 	movt	r2, #32768	; 0x8000
    1918:	4293      	cmp	r3, r2
    191a:	f000 80b8 	beq.w	1a8e <TEE_AllocateOperation+0x6ee>
    191e:	e0e2      	b.n	1ae6 <TEE_AllocateOperation+0x746>
    1920:	f44f 5203 	mov.w	r2, #8384	; 0x20c0
    1924:	f2c8 0200 	movt	r2, #32768	; 0x8000
    1928:	4293      	cmp	r3, r2
    192a:	f0c0 80dc 	bcc.w	1ae6 <TEE_AllocateOperation+0x746>
    192e:	f242 02c2 	movw	r2, #8386	; 0x20c2
    1932:	f2c8 0200 	movt	r2, #32768	; 0x8000
    1936:	4293      	cmp	r3, r2
    1938:	f240 80a9 	bls.w	1a8e <TEE_AllocateOperation+0x6ee>
    193c:	f243 0242 	movw	r2, #12354	; 0x3042
    1940:	f2c8 0200 	movt	r2, #32768	; 0x8000
    1944:	4293      	cmp	r3, r2
    1946:	f000 80a2 	beq.w	1a8e <TEE_AllocateOperation+0x6ee>
    194a:	e0cc      	b.n	1ae6 <TEE_AllocateOperation+0x746>
    194c:	f245 0242 	movw	r2, #20546	; 0x5042
    1950:	f2c8 0200 	movt	r2, #32768	; 0x8000
    1954:	4293      	cmp	r3, r2
    1956:	f000 809a 	beq.w	1a8e <TEE_AllocateOperation+0x6ee>
    195a:	f245 0242 	movw	r2, #20546	; 0x5042
    195e:	f2c8 0200 	movt	r2, #32768	; 0x8000
    1962:	4293      	cmp	r3, r2
    1964:	d816      	bhi.n	1994 <TEE_AllocateOperation+0x5f4>
    1966:	f244 0242 	movw	r2, #16450	; 0x4042
    196a:	f2c8 0200 	movt	r2, #32768	; 0x8000
    196e:	4293      	cmp	r3, r2
    1970:	f000 808d 	beq.w	1a8e <TEE_AllocateOperation+0x6ee>
    1974:	f244 0242 	movw	r2, #16450	; 0x4042
    1978:	f2c8 0200 	movt	r2, #32768	; 0x8000
    197c:	4293      	cmp	r3, r2
    197e:	f0c0 80b2 	bcc.w	1ae6 <TEE_AllocateOperation+0x746>
    1982:	f64b 7240 	movw	r2, #48960	; 0xbf40
    1986:	f6c7 72ff 	movt	r2, #32767	; 0x7fff
    198a:	441a      	add	r2, r3
    198c:	2a01      	cmp	r2, #1
    198e:	f200 80aa 	bhi.w	1ae6 <TEE_AllocateOperation+0x746>
    1992:	e07c      	b.n	1a8e <TEE_AllocateOperation+0x6ee>
    1994:	f245 02c0 	movw	r2, #20672	; 0x50c0
    1998:	f2c8 0200 	movt	r2, #32768	; 0x8000
    199c:	4293      	cmp	r3, r2
    199e:	f0c0 80a2 	bcc.w	1ae6 <TEE_AllocateOperation+0x746>
    19a2:	f245 02c1 	movw	r2, #20673	; 0x50c1
    19a6:	f2c8 0200 	movt	r2, #32768	; 0x8000
    19aa:	4293      	cmp	r3, r2
    19ac:	d96f      	bls.n	1a8e <TEE_AllocateOperation+0x6ee>
    19ae:	f649 7240 	movw	r2, #40768	; 0x9f40
    19b2:	f6c7 72ff 	movt	r2, #32767	; 0x7fff
    19b6:	441a      	add	r2, r3
    19b8:	2a01      	cmp	r2, #1
    19ba:	f200 8094 	bhi.w	1ae6 <TEE_AllocateOperation+0x746>
    19be:	e066      	b.n	1a8e <TEE_AllocateOperation+0x6ee>
/home/meander/optee/optee_os/lib/libutee/tee_api_operations.c:133
    19c0:	f04f 0301 	mov.w	r3, #1
    19c4:	f887 3026 	strb.w	r3, [r7, #38]	; 0x26
/home/meander/optee/optee_os/lib/libutee/tee_api_operations.c:142
    19c8:	68bb      	ldr	r3, [r7, #8]
    19ca:	b2db      	uxtb	r3, r3
    19cc:	2b10      	cmp	r3, #16
    19ce:	d103      	bne.n	19d8 <TEE_AllocateOperation+0x638>
/home/meander/optee/optee_os/lib/libutee/tee_api_operations.c:143
    19d0:	f04f 0310 	mov.w	r3, #16
    19d4:	62fb      	str	r3, [r7, #44]	; 0x2c
    19d6:	e002      	b.n	19de <TEE_AllocateOperation+0x63e>
/home/meander/optee/optee_os/lib/libutee/tee_api_operations.c:145
    19d8:	f04f 0308 	mov.w	r3, #8
    19dc:	62fb      	str	r3, [r7, #44]	; 0x2c
/home/meander/optee/optee_os/lib/libutee/tee_api_operations.c:149
    19de:	687b      	ldr	r3, [r7, #4]
    19e0:	2b00      	cmp	r3, #0
    19e2:	d103      	bne.n	19ec <TEE_AllocateOperation+0x64c>
/home/meander/optee/optee_os/lib/libutee/tee_api_operations.c:150
    19e4:	f04f 0302 	mov.w	r3, #2
    19e8:	62bb      	str	r3, [r7, #40]	; 0x28
/home/meander/optee/optee_os/lib/libutee/tee_api_operations.c:155
    19ea:	e081      	b.n	1af0 <TEE_AllocateOperation+0x750>
/home/meander/optee/optee_os/lib/libutee/tee_api_operations.c:151
    19ec:	687b      	ldr	r3, [r7, #4]
    19ee:	2b01      	cmp	r3, #1
    19f0:	d103      	bne.n	19fa <TEE_AllocateOperation+0x65a>
/home/meander/optee/optee_os/lib/libutee/tee_api_operations.c:152
    19f2:	f04f 0304 	mov.w	r3, #4
    19f6:	62bb      	str	r3, [r7, #40]	; 0x28
/home/meander/optee/optee_os/lib/libutee/tee_api_operations.c:155
    19f8:	e07a      	b.n	1af0 <TEE_AllocateOperation+0x750>
/home/meander/optee/optee_os/lib/libutee/tee_api_operations.c:154
    19fa:	f04f 030a 	mov.w	r3, #10
    19fe:	f6cf 73ff 	movt	r3, #65535	; 0xffff
    1a02:	e168      	b.n	1cd6 <TEE_AllocateOperation+0x936>
/home/meander/optee/optee_os/lib/libutee/tee_api_operations.c:176
    1a04:	687b      	ldr	r3, [r7, #4]
    1a06:	2b02      	cmp	r3, #2
    1a08:	d107      	bne.n	1a1a <TEE_AllocateOperation+0x67a>
/home/meander/optee/optee_os/lib/libutee/tee_api_operations.c:177
    1a0a:	f04f 0301 	mov.w	r3, #1
    1a0e:	f887 3027 	strb.w	r3, [r7, #39]	; 0x27
/home/meander/optee/optee_os/lib/libutee/tee_api_operations.c:178
    1a12:	f04f 0310 	mov.w	r3, #16
    1a16:	62bb      	str	r3, [r7, #40]	; 0x28
/home/meander/optee/optee_os/lib/libutee/tee_api_operations.c:184
    1a18:	e06a      	b.n	1af0 <TEE_AllocateOperation+0x750>
/home/meander/optee/optee_os/lib/libutee/tee_api_operations.c:179
    1a1a:	687b      	ldr	r3, [r7, #4]
    1a1c:	2b03      	cmp	r3, #3
    1a1e:	d103      	bne.n	1a28 <TEE_AllocateOperation+0x688>
/home/meander/optee/optee_os/lib/libutee/tee_api_operations.c:180
    1a20:	f04f 0320 	mov.w	r3, #32
    1a24:	62bb      	str	r3, [r7, #40]	; 0x28
/home/meander/optee/optee_os/lib/libutee/tee_api_operations.c:184
    1a26:	e063      	b.n	1af0 <TEE_AllocateOperation+0x750>
/home/meander/optee/optee_os/lib/libutee/tee_api_operations.c:182
    1a28:	f04f 030a 	mov.w	r3, #10
    1a2c:	f6cf 73ff 	movt	r3, #65535	; 0xffff
    1a30:	e151      	b.n	1cd6 <TEE_AllocateOperation+0x936>
/home/meander/optee/optee_os/lib/libutee/tee_api_operations.c:192
    1a32:	687b      	ldr	r3, [r7, #4]
    1a34:	2b00      	cmp	r3, #0
    1a36:	d103      	bne.n	1a40 <TEE_AllocateOperation+0x6a0>
/home/meander/optee/optee_os/lib/libutee/tee_api_operations.c:193
    1a38:	f04f 0302 	mov.w	r3, #2
    1a3c:	62bb      	str	r3, [r7, #40]	; 0x28
/home/meander/optee/optee_os/lib/libutee/tee_api_operations.c:200
    1a3e:	e057      	b.n	1af0 <TEE_AllocateOperation+0x750>
/home/meander/optee/optee_os/lib/libutee/tee_api_operations.c:194
    1a40:	687b      	ldr	r3, [r7, #4]
    1a42:	2b01      	cmp	r3, #1
    1a44:	d107      	bne.n	1a56 <TEE_AllocateOperation+0x6b6>
/home/meander/optee/optee_os/lib/libutee/tee_api_operations.c:195
    1a46:	f04f 0301 	mov.w	r3, #1
    1a4a:	f887 3027 	strb.w	r3, [r7, #39]	; 0x27
/home/meander/optee/optee_os/lib/libutee/tee_api_operations.c:196
    1a4e:	f04f 0304 	mov.w	r3, #4
    1a52:	62bb      	str	r3, [r7, #40]	; 0x28
/home/meander/optee/optee_os/lib/libutee/tee_api_operations.c:200
    1a54:	e04c      	b.n	1af0 <TEE_AllocateOperation+0x750>
/home/meander/optee/optee_os/lib/libutee/tee_api_operations.c:198
    1a56:	f04f 030a 	mov.w	r3, #10
    1a5a:	f6cf 73ff 	movt	r3, #65535	; 0xffff
    1a5e:	e13a      	b.n	1cd6 <TEE_AllocateOperation+0x936>
/home/meander/optee/optee_os/lib/libutee/tee_api_operations.c:203
    1a60:	687b      	ldr	r3, [r7, #4]
    1a62:	2b00      	cmp	r3, #0
    1a64:	d103      	bne.n	1a6e <TEE_AllocateOperation+0x6ce>
/home/meander/optee/optee_os/lib/libutee/tee_api_operations.c:204
    1a66:	f04f 0322 	mov.w	r3, #34	; 0x22
    1a6a:	62bb      	str	r3, [r7, #40]	; 0x28
/home/meander/optee/optee_os/lib/libutee/tee_api_operations.c:211
    1a6c:	e040      	b.n	1af0 <TEE_AllocateOperation+0x750>
/home/meander/optee/optee_os/lib/libutee/tee_api_operations.c:205
    1a6e:	687b      	ldr	r3, [r7, #4]
    1a70:	2b01      	cmp	r3, #1
    1a72:	d107      	bne.n	1a84 <TEE_AllocateOperation+0x6e4>
/home/meander/optee/optee_os/lib/libutee/tee_api_operations.c:206
    1a74:	f04f 0301 	mov.w	r3, #1
    1a78:	f887 3027 	strb.w	r3, [r7, #39]	; 0x27
/home/meander/optee/optee_os/lib/libutee/tee_api_operations.c:207
    1a7c:	f04f 0314 	mov.w	r3, #20
    1a80:	62bb      	str	r3, [r7, #40]	; 0x28
/home/meander/optee/optee_os/lib/libutee/tee_api_operations.c:211
    1a82:	e035      	b.n	1af0 <TEE_AllocateOperation+0x750>
/home/meander/optee/optee_os/lib/libutee/tee_api_operations.c:209
    1a84:	f04f 030a 	mov.w	r3, #10
    1a88:	f6cf 73ff 	movt	r3, #65535	; 0xffff
    1a8c:	e123      	b.n	1cd6 <TEE_AllocateOperation+0x936>
/home/meander/optee/optee_os/lib/libutee/tee_api_operations.c:231
    1a8e:	687b      	ldr	r3, [r7, #4]
    1a90:	2b06      	cmp	r3, #6
    1a92:	d004      	beq.n	1a9e <TEE_AllocateOperation+0x6fe>
/home/meander/optee/optee_os/lib/libutee/tee_api_operations.c:232
    1a94:	f04f 030a 	mov.w	r3, #10
    1a98:	f6cf 73ff 	movt	r3, #65535	; 0xffff
    1a9c:	e11b      	b.n	1cd6 <TEE_AllocateOperation+0x936>
/home/meander/optee/optee_os/lib/libutee/tee_api_operations.c:233
    1a9e:	f04f 0301 	mov.w	r3, #1
    1aa2:	f887 3027 	strb.w	r3, [r7, #39]	; 0x27
/home/meander/optee/optee_os/lib/libutee/tee_api_operations.c:234
    1aa6:	f04f 0340 	mov.w	r3, #64	; 0x40
    1aaa:	62bb      	str	r3, [r7, #40]	; 0x28
/home/meander/optee/optee_os/lib/libutee/tee_api_operations.c:235
    1aac:	e020      	b.n	1af0 <TEE_AllocateOperation+0x750>
/home/meander/optee/optee_os/lib/libutee/tee_api_operations.c:243
    1aae:	687b      	ldr	r3, [r7, #4]
    1ab0:	2b05      	cmp	r3, #5
    1ab2:	d004      	beq.n	1abe <TEE_AllocateOperation+0x71e>
/home/meander/optee/optee_os/lib/libutee/tee_api_operations.c:244
    1ab4:	f04f 030a 	mov.w	r3, #10
    1ab8:	f6cf 73ff 	movt	r3, #65535	; 0xffff
    1abc:	e10b      	b.n	1cd6 <TEE_AllocateOperation+0x936>
/home/meander/optee/optee_os/lib/libutee/tee_api_operations.c:246
    1abe:	6b3b      	ldr	r3, [r7, #48]	; 0x30
    1ac0:	f443 2380 	orr.w	r3, r3, #262144	; 0x40000
    1ac4:	633b      	str	r3, [r7, #48]	; 0x30
/home/meander/optee/optee_os/lib/libutee/tee_api_operations.c:247
    1ac6:	f04f 0300 	mov.w	r3, #0
    1aca:	62bb      	str	r3, [r7, #40]	; 0x28
/home/meander/optee/optee_os/lib/libutee/tee_api_operations.c:248
    1acc:	e010      	b.n	1af0 <TEE_AllocateOperation+0x750>
/home/meander/optee/optee_os/lib/libutee/tee_api_operations.c:263
    1ace:	687b      	ldr	r3, [r7, #4]
    1ad0:	2b04      	cmp	r3, #4
    1ad2:	d004      	beq.n	1ade <TEE_AllocateOperation+0x73e>
/home/meander/optee/optee_os/lib/libutee/tee_api_operations.c:264
    1ad4:	f04f 030a 	mov.w	r3, #10
    1ad8:	f6cf 73ff 	movt	r3, #65535	; 0xffff
    1adc:	e0fb      	b.n	1cd6 <TEE_AllocateOperation+0x936>
/home/meander/optee/optee_os/lib/libutee/tee_api_operations.c:265
    1ade:	f04f 0308 	mov.w	r3, #8
    1ae2:	62bb      	str	r3, [r7, #40]	; 0x28
/home/meander/optee/optee_os/lib/libutee/tee_api_operations.c:266
    1ae4:	e004      	b.n	1af0 <TEE_AllocateOperation+0x750>
/home/meander/optee/optee_os/lib/libutee/tee_api_operations.c:269
    1ae6:	f04f 030a 	mov.w	r3, #10
    1aea:	f6cf 73ff 	movt	r3, #65535	; 0xffff
    1aee:	e0f2      	b.n	1cd6 <TEE_AllocateOperation+0x936>
/home/meander/optee/optee_os/lib/libutee/tee_api_operations.c:272
    1af0:	f04f 0100 	mov.w	r1, #0
    1af4:	f04f 0044 	mov.w	r0, #68	; 0x44
    1af8:	f7ff fbee 	bl	12d8 <TEE_Malloc>
    1afc:	61b8      	str	r0, [r7, #24]
/home/meander/optee/optee_os/lib/libutee/tee_api_operations.c:273
    1afe:	69bb      	ldr	r3, [r7, #24]
    1b00:	2b00      	cmp	r3, #0
    1b02:	d104      	bne.n	1b0e <TEE_AllocateOperation+0x76e>
/home/meander/optee/optee_os/lib/libutee/tee_api_operations.c:274
    1b04:	f04f 030c 	mov.w	r3, #12
    1b08:	f6cf 73ff 	movt	r3, #65535	; 0xffff
    1b0c:	e0e3      	b.n	1cd6 <TEE_AllocateOperation+0x936>
/home/meander/optee/optee_os/lib/libutee/tee_api_operations.c:276
    1b0e:	69bb      	ldr	r3, [r7, #24]
    1b10:	68ba      	ldr	r2, [r7, #8]
    1b12:	601a      	str	r2, [r3, #0]
/home/meander/optee/optee_os/lib/libutee/tee_api_operations.c:277
    1b14:	68bb      	ldr	r3, [r7, #8]
    1b16:	ea4f 7213 	mov.w	r2, r3, lsr #28
    1b1a:	69bb      	ldr	r3, [r7, #24]
    1b1c:	605a      	str	r2, [r3, #4]
/home/meander/optee/optee_os/lib/libutee/tee_api_operations.c:278
    1b1e:	69bb      	ldr	r3, [r7, #24]
    1b20:	687a      	ldr	r2, [r7, #4]
    1b22:	609a      	str	r2, [r3, #8]
/home/meander/optee/optee_os/lib/libutee/tee_api_operations.c:279
    1b24:	69bb      	ldr	r3, [r7, #24]
    1b26:	683a      	ldr	r2, [r7, #0]
    1b28:	611a      	str	r2, [r3, #16]
/home/meander/optee/optee_os/lib/libutee/tee_api_operations.c:280
    1b2a:	69bb      	ldr	r3, [r7, #24]
    1b2c:	6aba      	ldr	r2, [r7, #40]	; 0x28
    1b2e:	619a      	str	r2, [r3, #24]
/home/meander/optee/optee_os/lib/libutee/tee_api_operations.c:281
    1b30:	69bb      	ldr	r3, [r7, #24]
    1b32:	6b3a      	ldr	r2, [r7, #48]	; 0x30
    1b34:	61da      	str	r2, [r3, #28]
/home/meander/optee/optee_os/lib/libutee/tee_api_operations.c:283
    1b36:	6afb      	ldr	r3, [r7, #44]	; 0x2c
    1b38:	2b01      	cmp	r3, #1
    1b3a:	d91b      	bls.n	1b74 <TEE_AllocateOperation+0x7d4>
/home/meander/optee/optee_os/lib/libutee/tee_api_operations.c:284
    1b3c:	6afb      	ldr	r3, [r7, #44]	; 0x2c
    1b3e:	623b      	str	r3, [r7, #32]
/home/meander/optee/optee_os/lib/libutee/tee_api_operations.c:286
    1b40:	f897 3026 	ldrb.w	r3, [r7, #38]	; 0x26
    1b44:	2b00      	cmp	r3, #0
    1b46:	d003      	beq.n	1b50 <TEE_AllocateOperation+0x7b0>
/home/meander/optee/optee_os/lib/libutee/tee_api_operations.c:287
    1b48:	6a3b      	ldr	r3, [r7, #32]
    1b4a:	ea4f 0343 	mov.w	r3, r3, lsl #1
    1b4e:	623b      	str	r3, [r7, #32]
/home/meander/optee/optee_os/lib/libutee/tee_api_operations.c:289
    1b50:	f04f 4100 	mov.w	r1, #2147483648	; 0x80000000
    1b54:	6a38      	ldr	r0, [r7, #32]
    1b56:	f7ff fbbf 	bl	12d8 <TEE_Malloc>
    1b5a:	4602      	mov	r2, r0
    1b5c:	69bb      	ldr	r3, [r7, #24]
    1b5e:	62da      	str	r2, [r3, #44]	; 0x2c
/home/meander/optee/optee_os/lib/libutee/tee_api_operations.c:291
    1b60:	69bb      	ldr	r3, [r7, #24]
    1b62:	6adb      	ldr	r3, [r3, #44]	; 0x2c
    1b64:	2b00      	cmp	r3, #0
    1b66:	d105      	bne.n	1b74 <TEE_AllocateOperation+0x7d4>
/home/meander/optee/optee_os/lib/libutee/tee_api_operations.c:292
    1b68:	f04f 030c 	mov.w	r3, #12
    1b6c:	f6cf 73ff 	movt	r3, #65535	; 0xffff
    1b70:	637b      	str	r3, [r7, #52]	; 0x34
/home/meander/optee/optee_os/lib/libutee/tee_api_operations.c:293
    1b72:	e07e      	b.n	1c72 <TEE_AllocateOperation+0x8d2>
/home/meander/optee/optee_os/lib/libutee/tee_api_operations.c:296
    1b74:	69bb      	ldr	r3, [r7, #24]
    1b76:	6afa      	ldr	r2, [r7, #44]	; 0x2c
    1b78:	635a      	str	r2, [r3, #52]	; 0x34
/home/meander/optee/optee_os/lib/libutee/tee_api_operations.c:297
    1b7a:	69bb      	ldr	r3, [r7, #24]
    1b7c:	f897 2026 	ldrb.w	r2, [r7, #38]	; 0x26
    1b80:	f883 2030 	strb.w	r2, [r3, #48]	; 0x30
/home/meander/optee/optee_os/lib/libutee/tee_api_operations.c:299
    1b84:	68bb      	ldr	r3, [r7, #8]
    1b86:	ea4f 7313 	mov.w	r3, r3, lsr #28
    1b8a:	2b05      	cmp	r3, #5
    1b8c:	d037      	beq.n	1bfe <TEE_AllocateOperation+0x85e>
/home/meander/optee/optee_os/lib/libutee/tee_api_operations.c:300
    1b8e:	683b      	ldr	r3, [r7, #0]
    1b90:	61fb      	str	r3, [r7, #28]
/home/meander/optee/optee_os/lib/libutee/tee_api_operations.c:301
    1b92:	68bb      	ldr	r3, [r7, #8]
    1b94:	b2da      	uxtb	r2, r3
    1b96:	f897 3027 	ldrb.w	r3, [r7, #39]	; 0x27
    1b9a:	2b00      	cmp	r3, #0
    1b9c:	d002      	beq.n	1ba4 <TEE_AllocateOperation+0x804>
/home/meander/optee/optee_os/lib/libutee/tee_api_operations.c:301 (discriminator 1)
    1b9e:	f04f 4321 	mov.w	r3, #2701131776	; 0xa1000000
    1ba2:	e001      	b.n	1ba8 <TEE_AllocateOperation+0x808>
/home/meander/optee/optee_os/lib/libutee/tee_api_operations.c:301 (discriminator 2)
    1ba4:	f04f 4320 	mov.w	r3, #2684354560	; 0xa0000000
/home/meander/optee/optee_os/lib/libutee/tee_api_operations.c:301 (discriminator 4)
    1ba8:	ea43 0302 	orr.w	r3, r3, r2
    1bac:	617b      	str	r3, [r7, #20]
/home/meander/optee/optee_os/lib/libutee/tee_api_operations.c:308 (discriminator 4)
    1bae:	69bb      	ldr	r3, [r7, #24]
    1bb0:	69db      	ldr	r3, [r3, #28]
    1bb2:	f403 2300 	and.w	r3, r3, #524288	; 0x80000
    1bb6:	2b00      	cmp	r3, #0
    1bb8:	d003      	beq.n	1bc2 <TEE_AllocateOperation+0x822>
/home/meander/optee/optee_os/lib/libutee/tee_api_operations.c:309
    1bba:	69fb      	ldr	r3, [r7, #28]
    1bbc:	ea4f 0353 	mov.w	r3, r3, lsr #1
    1bc0:	61fb      	str	r3, [r7, #28]
/home/meander/optee/optee_os/lib/libutee/tee_api_operations.c:311
    1bc2:	69bb      	ldr	r3, [r7, #24]
    1bc4:	f103 0320 	add.w	r3, r3, #32
    1bc8:	461a      	mov	r2, r3
    1bca:	69f9      	ldr	r1, [r7, #28]
    1bcc:	6978      	ldr	r0, [r7, #20]
    1bce:	f008 fcd0 	bl	a572 <TEE_AllocateTransientObject>
    1bd2:	6378      	str	r0, [r7, #52]	; 0x34
/home/meander/optee/optee_os/lib/libutee/tee_api_operations.c:312
    1bd4:	6b7b      	ldr	r3, [r7, #52]	; 0x34
    1bd6:	2b00      	cmp	r3, #0
    1bd8:	d144      	bne.n	1c64 <TEE_AllocateOperation+0x8c4>
/home/meander/optee/optee_os/lib/libutee/tee_api_operations.c:315
    1bda:	69bb      	ldr	r3, [r7, #24]
    1bdc:	69db      	ldr	r3, [r3, #28]
    1bde:	f403 2300 	and.w	r3, r3, #524288	; 0x80000
    1be2:	2b00      	cmp	r3, #0
    1be4:	d00b      	beq.n	1bfe <TEE_AllocateOperation+0x85e>
/home/meander/optee/optee_os/lib/libutee/tee_api_operations.c:316
    1be6:	69bb      	ldr	r3, [r7, #24]
    1be8:	f103 0324 	add.w	r3, r3, #36	; 0x24
    1bec:	461a      	mov	r2, r3
    1bee:	69f9      	ldr	r1, [r7, #28]
    1bf0:	6978      	ldr	r0, [r7, #20]
    1bf2:	f008 fcbe 	bl	a572 <TEE_AllocateTransientObject>
    1bf6:	6378      	str	r0, [r7, #52]	; 0x34
/home/meander/optee/optee_os/lib/libutee/tee_api_operations.c:318
    1bf8:	6b7b      	ldr	r3, [r7, #52]	; 0x34
    1bfa:	2b00      	cmp	r3, #0
    1bfc:	d134      	bne.n	1c68 <TEE_AllocateOperation+0x8c8>
/home/meander/optee/optee_os/lib/libutee/tee_api_operations.c:323
    1bfe:	69bb      	ldr	r3, [r7, #24]
    1c00:	6a1b      	ldr	r3, [r3, #32]
    1c02:	461a      	mov	r2, r3
/home/meander/optee/optee_os/lib/libutee/tee_api_operations.c:324
    1c04:	69bb      	ldr	r3, [r7, #24]
    1c06:	6a5b      	ldr	r3, [r3, #36]	; 0x24
/home/meander/optee/optee_os/lib/libutee/tee_api_operations.c:323
    1c08:	4619      	mov	r1, r3
    1c0a:	69bb      	ldr	r3, [r7, #24]
    1c0c:	f103 033c 	add.w	r3, r3, #60	; 0x3c
    1c10:	9300      	str	r3, [sp, #0]
    1c12:	460b      	mov	r3, r1
    1c14:	6879      	ldr	r1, [r7, #4]
    1c16:	68b8      	ldr	r0, [r7, #8]
    1c18:	f002 ec08 	blx	442c <utee_cryp_state_alloc>
    1c1c:	6378      	str	r0, [r7, #52]	; 0x34
/home/meander/optee/optee_os/lib/libutee/tee_api_operations.c:325
    1c1e:	6b7b      	ldr	r3, [r7, #52]	; 0x34
    1c20:	2b00      	cmp	r3, #0
    1c22:	d123      	bne.n	1c6c <TEE_AllocateOperation+0x8cc>
/home/meander/optee/optee_os/lib/libutee/tee_api_operations.c:333
    1c24:	68bb      	ldr	r3, [r7, #8]
    1c26:	ea4f 7313 	mov.w	r3, r3, lsr #28
    1c2a:	2b05      	cmp	r3, #5
    1c2c:	d112      	bne.n	1c54 <TEE_AllocateOperation+0x8b4>
/home/meander/optee/optee_os/lib/libutee/tee_api_operations.c:334
    1c2e:	69bb      	ldr	r3, [r7, #24]
    1c30:	6bdb      	ldr	r3, [r3, #60]	; 0x3c
    1c32:	f04f 0200 	mov.w	r2, #0
    1c36:	f04f 0100 	mov.w	r1, #0
    1c3a:	4618      	mov	r0, r3
    1c3c:	f002 ec16 	blx	446c <utee_hash_init>
    1c40:	6378      	str	r0, [r7, #52]	; 0x34
/home/meander/optee/optee_os/lib/libutee/tee_api_operations.c:335
    1c42:	6b7b      	ldr	r3, [r7, #52]	; 0x34
    1c44:	2b00      	cmp	r3, #0
    1c46:	d113      	bne.n	1c70 <TEE_AllocateOperation+0x8d0>
/home/meander/optee/optee_os/lib/libutee/tee_api_operations.c:338
    1c48:	69bb      	ldr	r3, [r7, #24]
    1c4a:	69db      	ldr	r3, [r3, #28]
    1c4c:	f443 3200 	orr.w	r2, r3, #131072	; 0x20000
    1c50:	69bb      	ldr	r3, [r7, #24]
    1c52:	61da      	str	r2, [r3, #28]
/home/meander/optee/optee_os/lib/libutee/tee_api_operations.c:341
    1c54:	69bb      	ldr	r3, [r7, #24]
    1c56:	f04f 0200 	mov.w	r2, #0
    1c5a:	629a      	str	r2, [r3, #40]	; 0x28
/home/meander/optee/optee_os/lib/libutee/tee_api_operations.c:343
    1c5c:	68fb      	ldr	r3, [r7, #12]
    1c5e:	69ba      	ldr	r2, [r7, #24]
    1c60:	601a      	str	r2, [r3, #0]
    1c62:	e006      	b.n	1c72 <TEE_AllocateOperation+0x8d2>
/home/meander/optee/optee_os/lib/libutee/tee_api_operations.c:313
    1c64:	bf00      	nop
    1c66:	e004      	b.n	1c72 <TEE_AllocateOperation+0x8d2>
/home/meander/optee/optee_os/lib/libutee/tee_api_operations.c:319
    1c68:	bf00      	nop
    1c6a:	e002      	b.n	1c72 <TEE_AllocateOperation+0x8d2>
/home/meander/optee/optee_os/lib/libutee/tee_api_operations.c:326
    1c6c:	bf00      	nop
    1c6e:	e000      	b.n	1c72 <TEE_AllocateOperation+0x8d2>
/home/meander/optee/optee_os/lib/libutee/tee_api_operations.c:336
    1c70:	bf00      	nop
/home/meander/optee/optee_os/lib/libutee/tee_api_operations.c:346
    1c72:	6b7b      	ldr	r3, [r7, #52]	; 0x34
    1c74:	2b00      	cmp	r3, #0
    1c76:	d02d      	beq.n	1cd4 <TEE_AllocateOperation+0x934>
/home/meander/optee/optee_os/lib/libutee/tee_api_operations.c:347
    1c78:	6b7a      	ldr	r2, [r7, #52]	; 0x34
    1c7a:	f04f 030c 	mov.w	r3, #12
    1c7e:	f6cf 73ff 	movt	r3, #65535	; 0xffff
    1c82:	429a      	cmp	r2, r3
    1c84:	d009      	beq.n	1c9a <TEE_AllocateOperation+0x8fa>
/home/meander/optee/optee_os/lib/libutee/tee_api_operations.c:347 (discriminator 1)
    1c86:	6b7a      	ldr	r2, [r7, #52]	; 0x34
    1c88:	f04f 030a 	mov.w	r3, #10
    1c8c:	f6cf 73ff 	movt	r3, #65535	; 0xffff
    1c90:	429a      	cmp	r2, r3
    1c92:	d002      	beq.n	1c9a <TEE_AllocateOperation+0x8fa>
/home/meander/optee/optee_os/lib/libutee/tee_api_operations.c:349
    1c94:	6b78      	ldr	r0, [r7, #52]	; 0x34
    1c96:	f009 fa5b 	bl	b150 <TEE_Panic>
/home/meander/optee/optee_os/lib/libutee/tee_api_operations.c:350
    1c9a:	69bb      	ldr	r3, [r7, #24]
    1c9c:	2b00      	cmp	r3, #0
    1c9e:	d019      	beq.n	1cd4 <TEE_AllocateOperation+0x934>
/home/meander/optee/optee_os/lib/libutee/tee_api_operations.c:351
    1ca0:	69bb      	ldr	r3, [r7, #24]
    1ca2:	6bdb      	ldr	r3, [r3, #60]	; 0x3c
    1ca4:	2b00      	cmp	r3, #0
    1ca6:	d003      	beq.n	1cb0 <TEE_AllocateOperation+0x910>
/home/meander/optee/optee_os/lib/libutee/tee_api_operations.c:352
    1ca8:	69b8      	ldr	r0, [r7, #24]
    1caa:	f000 f819 	bl	1ce0 <TEE_FreeOperation>
    1cae:	e011      	b.n	1cd4 <TEE_AllocateOperation+0x934>
/home/meander/optee/optee_os/lib/libutee/tee_api_operations.c:354
    1cb0:	69bb      	ldr	r3, [r7, #24]
    1cb2:	6adb      	ldr	r3, [r3, #44]	; 0x2c
    1cb4:	4618      	mov	r0, r3
    1cb6:	f7ff fb2f 	bl	1318 <TEE_Free>
/home/meander/optee/optee_os/lib/libutee/tee_api_operations.c:355
    1cba:	69bb      	ldr	r3, [r7, #24]
    1cbc:	6a1b      	ldr	r3, [r3, #32]
    1cbe:	4618      	mov	r0, r3
    1cc0:	f008 fc87 	bl	a5d2 <TEE_FreeTransientObject>
/home/meander/optee/optee_os/lib/libutee/tee_api_operations.c:356
    1cc4:	69bb      	ldr	r3, [r7, #24]
    1cc6:	6a5b      	ldr	r3, [r3, #36]	; 0x24
    1cc8:	4618      	mov	r0, r3
    1cca:	f008 fc82 	bl	a5d2 <TEE_FreeTransientObject>
/home/meander/optee/optee_os/lib/libutee/tee_api_operations.c:357
    1cce:	69b8      	ldr	r0, [r7, #24]
    1cd0:	f7ff fb22 	bl	1318 <TEE_Free>
/home/meander/optee/optee_os/lib/libutee/tee_api_operations.c:362
    1cd4:	6b7b      	ldr	r3, [r7, #52]	; 0x34
/home/meander/optee/optee_os/lib/libutee/tee_api_operations.c:363
    1cd6:	4618      	mov	r0, r3
    1cd8:	f107 0738 	add.w	r7, r7, #56	; 0x38
    1cdc:	46bd      	mov	sp, r7
    1cde:	bd80      	pop	{r7, pc}

00001ce0 <TEE_FreeOperation>:
TEE_FreeOperation():
/home/meander/optee/optee_os/lib/libutee/tee_api_operations.c:366
    1ce0:	e96d 7e02 	strd	r7, lr, [sp, #-8]!
    1ce4:	b084      	sub	sp, #16
    1ce6:	af00      	add	r7, sp, #0
    1ce8:	6078      	str	r0, [r7, #4]
/home/meander/optee/optee_os/lib/libutee/tee_api_operations.c:369
    1cea:	687b      	ldr	r3, [r7, #4]
    1cec:	2b00      	cmp	r3, #0
    1cee:	d103      	bne.n	1cf8 <TEE_FreeOperation+0x18>
/home/meander/optee/optee_os/lib/libutee/tee_api_operations.c:370
    1cf0:	f04f 0000 	mov.w	r0, #0
    1cf4:	f009 fa2c 	bl	b150 <TEE_Panic>
/home/meander/optee/optee_os/lib/libutee/tee_api_operations.c:377
    1cf8:	687b      	ldr	r3, [r7, #4]
    1cfa:	6bdb      	ldr	r3, [r3, #60]	; 0x3c
    1cfc:	4618      	mov	r0, r3
    1cfe:	f002 ebac 	blx	4458 <utee_cryp_state_free>
    1d02:	60f8      	str	r0, [r7, #12]
/home/meander/optee/optee_os/lib/libutee/tee_api_operations.c:378
    1d04:	68fb      	ldr	r3, [r7, #12]
    1d06:	2b00      	cmp	r3, #0
    1d08:	d002      	beq.n	1d10 <TEE_FreeOperation+0x30>
/home/meander/optee/optee_os/lib/libutee/tee_api_operations.c:379
    1d0a:	68f8      	ldr	r0, [r7, #12]
    1d0c:	f009 fa20 	bl	b150 <TEE_Panic>
/home/meander/optee/optee_os/lib/libutee/tee_api_operations.c:381
    1d10:	687b      	ldr	r3, [r7, #4]
    1d12:	6adb      	ldr	r3, [r3, #44]	; 0x2c
    1d14:	4618      	mov	r0, r3
    1d16:	f7ff faff 	bl	1318 <TEE_Free>
/home/meander/optee/optee_os/lib/libutee/tee_api_operations.c:382
    1d1a:	6878      	ldr	r0, [r7, #4]
    1d1c:	f7ff fafc 	bl	1318 <TEE_Free>
/home/meander/optee/optee_os/lib/libutee/tee_api_operations.c:383
    1d20:	bf00      	nop
    1d22:	f107 0710 	add.w	r7, r7, #16
    1d26:	46bd      	mov	sp, r7
    1d28:	bd80      	pop	{r7, pc}

00001d2a <TEE_GetOperationInfo>:
TEE_GetOperationInfo():
/home/meander/optee/optee_os/lib/libutee/tee_api_operations.c:387
    1d2a:	e96d 7e02 	strd	r7, lr, [sp, #-8]!
    1d2e:	b082      	sub	sp, #8
    1d30:	af00      	add	r7, sp, #0
    1d32:	6078      	str	r0, [r7, #4]
    1d34:	6039      	str	r1, [r7, #0]
/home/meander/optee/optee_os/lib/libutee/tee_api_operations.c:388
    1d36:	687b      	ldr	r3, [r7, #4]
    1d38:	2b00      	cmp	r3, #0
    1d3a:	d103      	bne.n	1d44 <TEE_GetOperationInfo+0x1a>
/home/meander/optee/optee_os/lib/libutee/tee_api_operations.c:389
    1d3c:	f04f 0000 	mov.w	r0, #0
    1d40:	f009 fa06 	bl	b150 <TEE_Panic>
/home/meander/optee/optee_os/lib/libutee/tee_api_operations.c:391
    1d44:	683b      	ldr	r3, [r7, #0]
    1d46:	2b00      	cmp	r3, #0
    1d48:	d103      	bne.n	1d52 <TEE_GetOperationInfo+0x28>
/home/meander/optee/optee_os/lib/libutee/tee_api_operations.c:392
    1d4a:	f04f 0000 	mov.w	r0, #0
    1d4e:	f009 f9ff 	bl	b150 <TEE_Panic>
/home/meander/optee/optee_os/lib/libutee/tee_api_operations.c:394
    1d52:	683b      	ldr	r3, [r7, #0]
    1d54:	687a      	ldr	r2, [r7, #4]
    1d56:	e9d2 0100 	ldrd	r0, r1, [r2]
    1d5a:	e9c3 0100 	strd	r0, r1, [r3]
    1d5e:	e9d2 0102 	ldrd	r0, r1, [r2, #8]
    1d62:	e9c3 0102 	strd	r0, r1, [r3, #8]
    1d66:	e9d2 0104 	ldrd	r0, r1, [r2, #16]
    1d6a:	e9c3 0104 	strd	r0, r1, [r3, #16]
    1d6e:	e9d2 1206 	ldrd	r1, r2, [r2, #24]
    1d72:	e9c3 1206 	strd	r1, r2, [r3, #24]
/home/meander/optee/optee_os/lib/libutee/tee_api_operations.c:395
    1d76:	bf00      	nop
    1d78:	f107 0708 	add.w	r7, r7, #8
    1d7c:	46bd      	mov	sp, r7
    1d7e:	bd80      	pop	{r7, pc}

00001d80 <TEE_GetOperationInfoMultiple>:
TEE_GetOperationInfoMultiple():
/home/meander/optee/optee_os/lib/libutee/tee_api_operations.c:400
    1d80:	e96d 7e02 	strd	r7, lr, [sp, #-8]!
    1d84:	b096      	sub	sp, #88	; 0x58
    1d86:	af00      	add	r7, sp, #0
    1d88:	60f8      	str	r0, [r7, #12]
    1d8a:	60b9      	str	r1, [r7, #8]
    1d8c:	607a      	str	r2, [r7, #4]
/home/meander/optee/optee_os/lib/libutee/tee_api_operations.c:401
    1d8e:	f04f 0300 	mov.w	r3, #0
    1d92:	657b      	str	r3, [r7, #84]	; 0x54
/home/meander/optee/optee_os/lib/libutee/tee_api_operations.c:407
    1d94:	68fb      	ldr	r3, [r7, #12]
    1d96:	2b00      	cmp	r3, #0
    1d98:	d105      	bne.n	1da6 <TEE_GetOperationInfoMultiple+0x26>
/home/meander/optee/optee_os/lib/libutee/tee_api_operations.c:408
    1d9a:	f04f 0306 	mov.w	r3, #6
    1d9e:	f6cf 73ff 	movt	r3, #65535	; 0xffff
    1da2:	657b      	str	r3, [r7, #84]	; 0x54
/home/meander/optee/optee_os/lib/libutee/tee_api_operations.c:409
    1da4:	e0a9      	b.n	1efa <TEE_GetOperationInfoMultiple+0x17a>
/home/meander/optee/optee_os/lib/libutee/tee_api_operations.c:412
    1da6:	68bb      	ldr	r3, [r7, #8]
    1da8:	2b00      	cmp	r3, #0
    1daa:	d105      	bne.n	1db8 <TEE_GetOperationInfoMultiple+0x38>
/home/meander/optee/optee_os/lib/libutee/tee_api_operations.c:413
    1dac:	f04f 0306 	mov.w	r3, #6
    1db0:	f6cf 73ff 	movt	r3, #65535	; 0xffff
    1db4:	657b      	str	r3, [r7, #84]	; 0x54
/home/meander/optee/optee_os/lib/libutee/tee_api_operations.c:414
    1db6:	e0a0      	b.n	1efa <TEE_GetOperationInfoMultiple+0x17a>
/home/meander/optee/optee_os/lib/libutee/tee_api_operations.c:417
    1db8:	687b      	ldr	r3, [r7, #4]
    1dba:	2b00      	cmp	r3, #0
    1dbc:	d105      	bne.n	1dca <TEE_GetOperationInfoMultiple+0x4a>
/home/meander/optee/optee_os/lib/libutee/tee_api_operations.c:418
    1dbe:	f04f 0306 	mov.w	r3, #6
    1dc2:	f6cf 73ff 	movt	r3, #65535	; 0xffff
    1dc6:	657b      	str	r3, [r7, #84]	; 0x54
/home/meander/optee/optee_os/lib/libutee/tee_api_operations.c:419
    1dc8:	e097      	b.n	1efa <TEE_GetOperationInfoMultiple+0x17a>
/home/meander/optee/optee_os/lib/libutee/tee_api_operations.c:422
    1dca:	687b      	ldr	r3, [r7, #4]
    1dcc:	681b      	ldr	r3, [r3, #0]
    1dce:	f1a3 0320 	sub.w	r3, r3, #32
    1dd2:	ea4f 03d3 	mov.w	r3, r3, lsr #3
    1dd6:	64fb      	str	r3, [r7, #76]	; 0x4c
/home/meander/optee/optee_os/lib/libutee/tee_api_operations.c:425
    1dd8:	6cfb      	ldr	r3, [r7, #76]	; 0x4c
    1dda:	2b02      	cmp	r3, #2
    1ddc:	d905      	bls.n	1dea <TEE_GetOperationInfoMultiple+0x6a>
/home/meander/optee/optee_os/lib/libutee/tee_api_operations.c:426
    1dde:	f04f 0306 	mov.w	r3, #6
    1de2:	f6cf 73ff 	movt	r3, #65535	; 0xffff
    1de6:	657b      	str	r3, [r7, #84]	; 0x54
/home/meander/optee/optee_os/lib/libutee/tee_api_operations.c:427
    1de8:	e087      	b.n	1efa <TEE_GetOperationInfoMultiple+0x17a>
/home/meander/optee/optee_os/lib/libutee/tee_api_operations.c:431
    1dea:	68fb      	ldr	r3, [r7, #12]
    1dec:	69db      	ldr	r3, [r3, #28]
    1dee:	f403 2300 	and.w	r3, r3, #524288	; 0x80000
    1df2:	2b00      	cmp	r3, #0
    1df4:	d008      	beq.n	1e08 <TEE_GetOperationInfoMultiple+0x88>
/home/meander/optee/optee_os/lib/libutee/tee_api_operations.c:432
    1df6:	6cfb      	ldr	r3, [r7, #76]	; 0x4c
    1df8:	2b02      	cmp	r3, #2
    1dfa:	d005      	beq.n	1e08 <TEE_GetOperationInfoMultiple+0x88>
/home/meander/optee/optee_os/lib/libutee/tee_api_operations.c:434
    1dfc:	f04f 0310 	mov.w	r3, #16
    1e00:	f6cf 73ff 	movt	r3, #65535	; 0xffff
    1e04:	657b      	str	r3, [r7, #84]	; 0x54
/home/meander/optee/optee_os/lib/libutee/tee_api_operations.c:435
    1e06:	e078      	b.n	1efa <TEE_GetOperationInfoMultiple+0x17a>
/home/meander/optee/optee_os/lib/libutee/tee_api_operations.c:439
    1e08:	f04f 0300 	mov.w	r3, #0
    1e0c:	653b      	str	r3, [r7, #80]	; 0x50
    1e0e:	e015      	b.n	1e3c <TEE_GetOperationInfoMultiple+0xbc>
/home/meander/optee/optee_os/lib/libutee/tee_api_operations.c:440 (discriminator 3)
    1e10:	68bb      	ldr	r3, [r7, #8]
    1e12:	6d3a      	ldr	r2, [r7, #80]	; 0x50
    1e14:	f102 0204 	add.w	r2, r2, #4
    1e18:	f04f 0100 	mov.w	r1, #0
    1e1c:	f843 1032 	str.w	r1, [r3, r2, lsl #3]
/home/meander/optee/optee_os/lib/libutee/tee_api_operations.c:441 (discriminator 3)
    1e20:	68ba      	ldr	r2, [r7, #8]
    1e22:	6d3b      	ldr	r3, [r7, #80]	; 0x50
    1e24:	f103 0304 	add.w	r3, r3, #4
    1e28:	ea4f 03c3 	mov.w	r3, r3, lsl #3
    1e2c:	4413      	add	r3, r2
    1e2e:	f04f 0200 	mov.w	r2, #0
    1e32:	605a      	str	r2, [r3, #4]
/home/meander/optee/optee_os/lib/libutee/tee_api_operations.c:439 (discriminator 3)
    1e34:	6d3b      	ldr	r3, [r7, #80]	; 0x50
    1e36:	f103 0301 	add.w	r3, r3, #1
    1e3a:	653b      	str	r3, [r7, #80]	; 0x50
/home/meander/optee/optee_os/lib/libutee/tee_api_operations.c:439 (discriminator 1)
    1e3c:	6d3a      	ldr	r2, [r7, #80]	; 0x50
    1e3e:	6cfb      	ldr	r3, [r7, #76]	; 0x4c
    1e40:	429a      	cmp	r2, r3
    1e42:	d3e5      	bcc.n	1e10 <TEE_GetOperationInfoMultiple+0x90>
/home/meander/optee/optee_os/lib/libutee/tee_api_operations.c:444
    1e44:	6cfb      	ldr	r3, [r7, #76]	; 0x4c
    1e46:	2b02      	cmp	r3, #2
    1e48:	d112      	bne.n	1e70 <TEE_GetOperationInfoMultiple+0xf0>
/home/meander/optee/optee_os/lib/libutee/tee_api_operations.c:445
    1e4a:	68fb      	ldr	r3, [r7, #12]
    1e4c:	6a5b      	ldr	r3, [r3, #36]	; 0x24
    1e4e:	f107 0214 	add.w	r2, r7, #20
    1e52:	4611      	mov	r1, r2
    1e54:	4618      	mov	r0, r3
    1e56:	f008 fa31 	bl	a2bc <TEE_GetObjectInfo1>
    1e5a:	6578      	str	r0, [r7, #84]	; 0x54
/home/meander/optee/optee_os/lib/libutee/tee_api_operations.c:447
    1e5c:	6d7b      	ldr	r3, [r7, #84]	; 0x54
    1e5e:	2b00      	cmp	r3, #0
    1e60:	d148      	bne.n	1ef4 <TEE_GetOperationInfoMultiple+0x174>
/home/meander/optee/optee_os/lib/libutee/tee_api_operations.c:451
    1e62:	69ba      	ldr	r2, [r7, #24]
/home/meander/optee/optee_os/lib/libutee/tee_api_operations.c:450
    1e64:	68bb      	ldr	r3, [r7, #8]
    1e66:	629a      	str	r2, [r3, #40]	; 0x28
/home/meander/optee/optee_os/lib/libutee/tee_api_operations.c:453
    1e68:	68fb      	ldr	r3, [r7, #12]
    1e6a:	699a      	ldr	r2, [r3, #24]
/home/meander/optee/optee_os/lib/libutee/tee_api_operations.c:452
    1e6c:	68bb      	ldr	r3, [r7, #8]
    1e6e:	62da      	str	r2, [r3, #44]	; 0x2c
/home/meander/optee/optee_os/lib/libutee/tee_api_operations.c:456
    1e70:	6cfb      	ldr	r3, [r7, #76]	; 0x4c
    1e72:	2b00      	cmp	r3, #0
    1e74:	d01e      	beq.n	1eb4 <TEE_GetOperationInfoMultiple+0x134>
/home/meander/optee/optee_os/lib/libutee/tee_api_operations.c:457
    1e76:	68fb      	ldr	r3, [r7, #12]
    1e78:	6a1b      	ldr	r3, [r3, #32]
    1e7a:	f107 0230 	add.w	r2, r7, #48	; 0x30
    1e7e:	4611      	mov	r1, r2
    1e80:	4618      	mov	r0, r3
    1e82:	f008 fa1b 	bl	a2bc <TEE_GetObjectInfo1>
    1e86:	6578      	str	r0, [r7, #84]	; 0x54
/home/meander/optee/optee_os/lib/libutee/tee_api_operations.c:459
    1e88:	6d7b      	ldr	r3, [r7, #84]	; 0x54
    1e8a:	2b00      	cmp	r3, #0
    1e8c:	d00b      	beq.n	1ea6 <TEE_GetOperationInfoMultiple+0x126>
/home/meander/optee/optee_os/lib/libutee/tee_api_operations.c:460
    1e8e:	6cfb      	ldr	r3, [r7, #76]	; 0x4c
    1e90:	2b02      	cmp	r3, #2
    1e92:	d131      	bne.n	1ef8 <TEE_GetOperationInfoMultiple+0x178>
/home/meander/optee/optee_os/lib/libutee/tee_api_operations.c:462
    1e94:	68bb      	ldr	r3, [r7, #8]
    1e96:	f04f 0200 	mov.w	r2, #0
    1e9a:	629a      	str	r2, [r3, #40]	; 0x28
/home/meander/optee/optee_os/lib/libutee/tee_api_operations.c:464
    1e9c:	68bb      	ldr	r3, [r7, #8]
    1e9e:	f04f 0200 	mov.w	r2, #0
    1ea2:	62da      	str	r2, [r3, #44]	; 0x2c
/home/meander/optee/optee_os/lib/libutee/tee_api_operations.c:466
    1ea4:	e028      	b.n	1ef8 <TEE_GetOperationInfoMultiple+0x178>
/home/meander/optee/optee_os/lib/libutee/tee_api_operations.c:470
    1ea6:	6b7a      	ldr	r2, [r7, #52]	; 0x34
/home/meander/optee/optee_os/lib/libutee/tee_api_operations.c:469
    1ea8:	68bb      	ldr	r3, [r7, #8]
    1eaa:	621a      	str	r2, [r3, #32]
/home/meander/optee/optee_os/lib/libutee/tee_api_operations.c:472
    1eac:	68fb      	ldr	r3, [r7, #12]
    1eae:	699a      	ldr	r2, [r3, #24]
/home/meander/optee/optee_os/lib/libutee/tee_api_operations.c:471
    1eb0:	68bb      	ldr	r3, [r7, #8]
    1eb2:	625a      	str	r2, [r3, #36]	; 0x24
/home/meander/optee/optee_os/lib/libutee/tee_api_operations.c:476
    1eb4:	68fb      	ldr	r3, [r7, #12]
    1eb6:	681a      	ldr	r2, [r3, #0]
    1eb8:	68bb      	ldr	r3, [r7, #8]
    1eba:	601a      	str	r2, [r3, #0]
/home/meander/optee/optee_os/lib/libutee/tee_api_operations.c:477
    1ebc:	68fb      	ldr	r3, [r7, #12]
    1ebe:	685a      	ldr	r2, [r3, #4]
    1ec0:	68bb      	ldr	r3, [r7, #8]
    1ec2:	605a      	str	r2, [r3, #4]
/home/meander/optee/optee_os/lib/libutee/tee_api_operations.c:478
    1ec4:	68fb      	ldr	r3, [r7, #12]
    1ec6:	689a      	ldr	r2, [r3, #8]
    1ec8:	68bb      	ldr	r3, [r7, #8]
    1eca:	609a      	str	r2, [r3, #8]
/home/meander/optee/optee_os/lib/libutee/tee_api_operations.c:479
    1ecc:	68fb      	ldr	r3, [r7, #12]
    1ece:	68da      	ldr	r2, [r3, #12]
    1ed0:	68bb      	ldr	r3, [r7, #8]
    1ed2:	60da      	str	r2, [r3, #12]
/home/meander/optee/optee_os/lib/libutee/tee_api_operations.c:480
    1ed4:	68fb      	ldr	r3, [r7, #12]
    1ed6:	691a      	ldr	r2, [r3, #16]
    1ed8:	68bb      	ldr	r3, [r7, #8]
    1eda:	611a      	str	r2, [r3, #16]
/home/meander/optee/optee_os/lib/libutee/tee_api_operations.c:481
    1edc:	68fb      	ldr	r3, [r7, #12]
    1ede:	69da      	ldr	r2, [r3, #28]
    1ee0:	68bb      	ldr	r3, [r7, #8]
    1ee2:	615a      	str	r2, [r3, #20]
/home/meander/optee/optee_os/lib/libutee/tee_api_operations.c:482
    1ee4:	68fb      	ldr	r3, [r7, #12]
    1ee6:	6a9a      	ldr	r2, [r3, #40]	; 0x28
    1ee8:	68bb      	ldr	r3, [r7, #8]
    1eea:	619a      	str	r2, [r3, #24]
/home/meander/optee/optee_os/lib/libutee/tee_api_operations.c:483
    1eec:	68bb      	ldr	r3, [r7, #8]
    1eee:	6cfa      	ldr	r2, [r7, #76]	; 0x4c
    1ef0:	61da      	str	r2, [r3, #28]
    1ef2:	e002      	b.n	1efa <TEE_GetOperationInfoMultiple+0x17a>
/home/meander/optee/optee_os/lib/libutee/tee_api_operations.c:448
    1ef4:	bf00      	nop
    1ef6:	e000      	b.n	1efa <TEE_GetOperationInfoMultiple+0x17a>
/home/meander/optee/optee_os/lib/libutee/tee_api_operations.c:466
    1ef8:	bf00      	nop
/home/meander/optee/optee_os/lib/libutee/tee_api_operations.c:486
    1efa:	6d7b      	ldr	r3, [r7, #84]	; 0x54
    1efc:	2b00      	cmp	r3, #0
    1efe:	d009      	beq.n	1f14 <TEE_GetOperationInfoMultiple+0x194>
/home/meander/optee/optee_os/lib/libutee/tee_api_operations.c:486 (discriminator 1)
    1f00:	6d7a      	ldr	r2, [r7, #84]	; 0x54
    1f02:	f04f 0310 	mov.w	r3, #16
    1f06:	f6cf 73ff 	movt	r3, #65535	; 0xffff
    1f0a:	429a      	cmp	r2, r3
    1f0c:	d002      	beq.n	1f14 <TEE_GetOperationInfoMultiple+0x194>
/home/meander/optee/optee_os/lib/libutee/tee_api_operations.c:488
    1f0e:	6d78      	ldr	r0, [r7, #84]	; 0x54
    1f10:	f009 f91e 	bl	b150 <TEE_Panic>
/home/meander/optee/optee_os/lib/libutee/tee_api_operations.c:490
    1f14:	6d7b      	ldr	r3, [r7, #84]	; 0x54
/home/meander/optee/optee_os/lib/libutee/tee_api_operations.c:491
    1f16:	4618      	mov	r0, r3
    1f18:	f107 0758 	add.w	r7, r7, #88	; 0x58
    1f1c:	46bd      	mov	sp, r7
    1f1e:	bd80      	pop	{r7, pc}

00001f20 <TEE_ResetOperation>:
TEE_ResetOperation():
/home/meander/optee/optee_os/lib/libutee/tee_api_operations.c:494
    1f20:	e96d 7e02 	strd	r7, lr, [sp, #-8]!
    1f24:	b084      	sub	sp, #16
    1f26:	af00      	add	r7, sp, #0
    1f28:	6078      	str	r0, [r7, #4]
/home/meander/optee/optee_os/lib/libutee/tee_api_operations.c:497
    1f2a:	687b      	ldr	r3, [r7, #4]
    1f2c:	2b00      	cmp	r3, #0
    1f2e:	d103      	bne.n	1f38 <TEE_ResetOperation+0x18>
/home/meander/optee/optee_os/lib/libutee/tee_api_operations.c:498
    1f30:	f04f 0000 	mov.w	r0, #0
    1f34:	f009 f90c 	bl	b150 <TEE_Panic>
/home/meander/optee/optee_os/lib/libutee/tee_api_operations.c:500
    1f38:	687b      	ldr	r3, [r7, #4]
    1f3a:	69db      	ldr	r3, [r3, #28]
    1f3c:	f403 2380 	and.w	r3, r3, #262144	; 0x40000
    1f40:	2b00      	cmp	r3, #0
    1f42:	d103      	bne.n	1f4c <TEE_ResetOperation+0x2c>
/home/meander/optee/optee_os/lib/libutee/tee_api_operations.c:501
    1f44:	f04f 0000 	mov.w	r0, #0
    1f48:	f009 f902 	bl	b150 <TEE_Panic>
/home/meander/optee/optee_os/lib/libutee/tee_api_operations.c:503
    1f4c:	687b      	ldr	r3, [r7, #4]
    1f4e:	f04f 0200 	mov.w	r2, #0
    1f52:	629a      	str	r2, [r3, #40]	; 0x28
/home/meander/optee/optee_os/lib/libutee/tee_api_operations.c:505
    1f54:	687b      	ldr	r3, [r7, #4]
    1f56:	685b      	ldr	r3, [r3, #4]
    1f58:	2b05      	cmp	r3, #5
    1f5a:	d116      	bne.n	1f8a <TEE_ResetOperation+0x6a>
/home/meander/optee/optee_os/lib/libutee/tee_api_operations.c:506
    1f5c:	687b      	ldr	r3, [r7, #4]
    1f5e:	6bdb      	ldr	r3, [r3, #60]	; 0x3c
    1f60:	f04f 0200 	mov.w	r2, #0
    1f64:	f04f 0100 	mov.w	r1, #0
    1f68:	4618      	mov	r0, r3
    1f6a:	f002 ea80 	blx	446c <utee_hash_init>
    1f6e:	60f8      	str	r0, [r7, #12]
/home/meander/optee/optee_os/lib/libutee/tee_api_operations.c:507
    1f70:	68fb      	ldr	r3, [r7, #12]
    1f72:	2b00      	cmp	r3, #0
    1f74:	d002      	beq.n	1f7c <TEE_ResetOperation+0x5c>
/home/meander/optee/optee_os/lib/libutee/tee_api_operations.c:508
    1f76:	68f8      	ldr	r0, [r7, #12]
    1f78:	f009 f8ea 	bl	b150 <TEE_Panic>
/home/meander/optee/optee_os/lib/libutee/tee_api_operations.c:509
    1f7c:	687b      	ldr	r3, [r7, #4]
    1f7e:	69db      	ldr	r3, [r3, #28]
    1f80:	f443 3200 	orr.w	r2, r3, #131072	; 0x20000
    1f84:	687b      	ldr	r3, [r7, #4]
    1f86:	61da      	str	r2, [r3, #28]
/home/meander/optee/optee_os/lib/libutee/tee_api_operations.c:513
    1f88:	e005      	b.n	1f96 <TEE_ResetOperation+0x76>
/home/meander/optee/optee_os/lib/libutee/tee_api_operations.c:511
    1f8a:	687b      	ldr	r3, [r7, #4]
    1f8c:	69db      	ldr	r3, [r3, #28]
    1f8e:	f423 3200 	bic.w	r2, r3, #131072	; 0x20000
    1f92:	687b      	ldr	r3, [r7, #4]
    1f94:	61da      	str	r2, [r3, #28]
/home/meander/optee/optee_os/lib/libutee/tee_api_operations.c:513
    1f96:	bf00      	nop
    1f98:	f107 0710 	add.w	r7, r7, #16
    1f9c:	46bd      	mov	sp, r7
    1f9e:	bd80      	pop	{r7, pc}

00001fa0 <TEE_SetOperationKey>:
TEE_SetOperationKey():
/home/meander/optee/optee_os/lib/libutee/tee_api_operations.c:517
    1fa0:	e96d 7e02 	strd	r7, lr, [sp, #-8]!
    1fa4:	b08c      	sub	sp, #48	; 0x30
    1fa6:	af00      	add	r7, sp, #0
    1fa8:	6078      	str	r0, [r7, #4]
    1faa:	6039      	str	r1, [r7, #0]
/home/meander/optee/optee_os/lib/libutee/tee_api_operations.c:519
    1fac:	f04f 0300 	mov.w	r3, #0
    1fb0:	62bb      	str	r3, [r7, #40]	; 0x28
/home/meander/optee/optee_os/lib/libutee/tee_api_operations.c:522
    1fb2:	687b      	ldr	r3, [r7, #4]
    1fb4:	2b00      	cmp	r3, #0
    1fb6:	d105      	bne.n	1fc4 <TEE_SetOperationKey+0x24>
/home/meander/optee/optee_os/lib/libutee/tee_api_operations.c:523
    1fb8:	f04f 0306 	mov.w	r3, #6
    1fbc:	f6cf 73ff 	movt	r3, #65535	; 0xffff
    1fc0:	62fb      	str	r3, [r7, #44]	; 0x2c
/home/meander/optee/optee_os/lib/libutee/tee_api_operations.c:524
    1fc2:	e075      	b.n	20b0 <TEE_SetOperationKey+0x110>
/home/meander/optee/optee_os/lib/libutee/tee_api_operations.c:527
    1fc4:	687b      	ldr	r3, [r7, #4]
    1fc6:	6a9b      	ldr	r3, [r3, #40]	; 0x28
    1fc8:	2b00      	cmp	r3, #0
    1fca:	d005      	beq.n	1fd8 <TEE_SetOperationKey+0x38>
/home/meander/optee/optee_os/lib/libutee/tee_api_operations.c:528
    1fcc:	f04f 0306 	mov.w	r3, #6
    1fd0:	f6cf 73ff 	movt	r3, #65535	; 0xffff
    1fd4:	62fb      	str	r3, [r7, #44]	; 0x2c
/home/meander/optee/optee_os/lib/libutee/tee_api_operations.c:529
    1fd6:	e06b      	b.n	20b0 <TEE_SetOperationKey+0x110>
/home/meander/optee/optee_os/lib/libutee/tee_api_operations.c:532
    1fd8:	683b      	ldr	r3, [r7, #0]
    1fda:	2b00      	cmp	r3, #0
    1fdc:	d10a      	bne.n	1ff4 <TEE_SetOperationKey+0x54>
/home/meander/optee/optee_os/lib/libutee/tee_api_operations.c:534
    1fde:	687b      	ldr	r3, [r7, #4]
    1fe0:	6a1b      	ldr	r3, [r3, #32]
    1fe2:	4618      	mov	r0, r3
    1fe4:	f008 fb25 	bl	a632 <TEE_ResetTransientObject>
/home/meander/optee/optee_os/lib/libutee/tee_api_operations.c:535
    1fe8:	f04f 0306 	mov.w	r3, #6
    1fec:	f6cf 73ff 	movt	r3, #65535	; 0xffff
    1ff0:	62fb      	str	r3, [r7, #44]	; 0x2c
/home/meander/optee/optee_os/lib/libutee/tee_api_operations.c:536
    1ff2:	e05d      	b.n	20b0 <TEE_SetOperationKey+0x110>
/home/meander/optee/optee_os/lib/libutee/tee_api_operations.c:540
    1ff4:	687b      	ldr	r3, [r7, #4]
    1ff6:	685b      	ldr	r3, [r3, #4]
    1ff8:	2b05      	cmp	r3, #5
    1ffa:	d105      	bne.n	2008 <TEE_SetOperationKey+0x68>
/home/meander/optee/optee_os/lib/libutee/tee_api_operations.c:541
    1ffc:	f04f 0306 	mov.w	r3, #6
    2000:	f6cf 73ff 	movt	r3, #65535	; 0xffff
    2004:	62fb      	str	r3, [r7, #44]	; 0x2c
/home/meander/optee/optee_os/lib/libutee/tee_api_operations.c:542
    2006:	e053      	b.n	20b0 <TEE_SetOperationKey+0x110>
/home/meander/optee/optee_os/lib/libutee/tee_api_operations.c:546
    2008:	687b      	ldr	r3, [r7, #4]
    200a:	69db      	ldr	r3, [r3, #28]
    200c:	f403 2300 	and.w	r3, r3, #524288	; 0x80000
    2010:	2b00      	cmp	r3, #0
    2012:	d005      	beq.n	2020 <TEE_SetOperationKey+0x80>
/home/meander/optee/optee_os/lib/libutee/tee_api_operations.c:548
    2014:	f04f 0306 	mov.w	r3, #6
    2018:	f6cf 73ff 	movt	r3, #65535	; 0xffff
    201c:	62fb      	str	r3, [r7, #44]	; 0x2c
/home/meander/optee/optee_os/lib/libutee/tee_api_operations.c:549
    201e:	e047      	b.n	20b0 <TEE_SetOperationKey+0x110>
/home/meander/optee/optee_os/lib/libutee/tee_api_operations.c:552
    2020:	f107 030c 	add.w	r3, r7, #12
    2024:	4619      	mov	r1, r3
    2026:	6838      	ldr	r0, [r7, #0]
    2028:	f008 f948 	bl	a2bc <TEE_GetObjectInfo1>
    202c:	62f8      	str	r0, [r7, #44]	; 0x2c
/home/meander/optee/optee_os/lib/libutee/tee_api_operations.c:554
    202e:	6afb      	ldr	r3, [r7, #44]	; 0x2c
    2030:	2b00      	cmp	r3, #0
    2032:	d13a      	bne.n	20aa <TEE_SetOperationKey+0x10a>
/home/meander/optee/optee_os/lib/libutee/tee_api_operations.c:558
    2034:	69ba      	ldr	r2, [r7, #24]
    2036:	687b      	ldr	r3, [r7, #4]
    2038:	699b      	ldr	r3, [r3, #24]
    203a:	ea02 0203 	and.w	r2, r2, r3
/home/meander/optee/optee_os/lib/libutee/tee_api_operations.c:559
    203e:	687b      	ldr	r3, [r7, #4]
    2040:	699b      	ldr	r3, [r3, #24]
/home/meander/optee/optee_os/lib/libutee/tee_api_operations.c:558
    2042:	429a      	cmp	r2, r3
    2044:	d005      	beq.n	2052 <TEE_SetOperationKey+0xb2>
/home/meander/optee/optee_os/lib/libutee/tee_api_operations.c:560
    2046:	f04f 0306 	mov.w	r3, #6
    204a:	f6cf 73ff 	movt	r3, #65535	; 0xffff
    204e:	62fb      	str	r3, [r7, #44]	; 0x2c
/home/meander/optee/optee_os/lib/libutee/tee_api_operations.c:561
    2050:	e02e      	b.n	20b0 <TEE_SetOperationKey+0x110>
/home/meander/optee/optee_os/lib/libutee/tee_api_operations.c:564
    2052:	687b      	ldr	r3, [r7, #4]
    2054:	691a      	ldr	r2, [r3, #16]
    2056:	693b      	ldr	r3, [r7, #16]
    2058:	429a      	cmp	r2, r3
    205a:	d205      	bcs.n	2068 <TEE_SetOperationKey+0xc8>
/home/meander/optee/optee_os/lib/libutee/tee_api_operations.c:565
    205c:	f04f 0306 	mov.w	r3, #6
    2060:	f6cf 73ff 	movt	r3, #65535	; 0xffff
    2064:	62fb      	str	r3, [r7, #44]	; 0x2c
/home/meander/optee/optee_os/lib/libutee/tee_api_operations.c:566
    2066:	e023      	b.n	20b0 <TEE_SetOperationKey+0x110>
/home/meander/optee/optee_os/lib/libutee/tee_api_operations.c:569
    2068:	693b      	ldr	r3, [r7, #16]
    206a:	62bb      	str	r3, [r7, #40]	; 0x28
/home/meander/optee/optee_os/lib/libutee/tee_api_operations.c:571
    206c:	687b      	ldr	r3, [r7, #4]
    206e:	6a1b      	ldr	r3, [r3, #32]
    2070:	4618      	mov	r0, r3
    2072:	f008 fade 	bl	a632 <TEE_ResetTransientObject>
/home/meander/optee/optee_os/lib/libutee/tee_api_operations.c:572
    2076:	687b      	ldr	r3, [r7, #4]
    2078:	69db      	ldr	r3, [r3, #28]
    207a:	f423 2280 	bic.w	r2, r3, #262144	; 0x40000
    207e:	687b      	ldr	r3, [r7, #4]
    2080:	61da      	str	r2, [r3, #28]
/home/meander/optee/optee_os/lib/libutee/tee_api_operations.c:574
    2082:	687b      	ldr	r3, [r7, #4]
    2084:	6a1b      	ldr	r3, [r3, #32]
    2086:	6839      	ldr	r1, [r7, #0]
    2088:	4618      	mov	r0, r3
    208a:	f008 fc0b 	bl	a8a4 <TEE_CopyObjectAttributes1>
    208e:	62f8      	str	r0, [r7, #44]	; 0x2c
/home/meander/optee/optee_os/lib/libutee/tee_api_operations.c:575
    2090:	6afb      	ldr	r3, [r7, #44]	; 0x2c
    2092:	2b00      	cmp	r3, #0
    2094:	d10b      	bne.n	20ae <TEE_SetOperationKey+0x10e>
/home/meander/optee/optee_os/lib/libutee/tee_api_operations.c:578
    2096:	687b      	ldr	r3, [r7, #4]
    2098:	69db      	ldr	r3, [r3, #28]
    209a:	f443 2280 	orr.w	r2, r3, #262144	; 0x40000
    209e:	687b      	ldr	r3, [r7, #4]
    20a0:	61da      	str	r2, [r3, #28]
/home/meander/optee/optee_os/lib/libutee/tee_api_operations.c:580
    20a2:	687b      	ldr	r3, [r7, #4]
    20a4:	6aba      	ldr	r2, [r7, #40]	; 0x28
    20a6:	615a      	str	r2, [r3, #20]
    20a8:	e002      	b.n	20b0 <TEE_SetOperationKey+0x110>
/home/meander/optee/optee_os/lib/libutee/tee_api_operations.c:555
    20aa:	bf00      	nop
    20ac:	e000      	b.n	20b0 <TEE_SetOperationKey+0x110>
/home/meander/optee/optee_os/lib/libutee/tee_api_operations.c:576
    20ae:	bf00      	nop
/home/meander/optee/optee_os/lib/libutee/tee_api_operations.c:583
    20b0:	6afb      	ldr	r3, [r7, #44]	; 0x2c
    20b2:	2b00      	cmp	r3, #0
    20b4:	d010      	beq.n	20d8 <TEE_SetOperationKey+0x138>
/home/meander/optee/optee_os/lib/libutee/tee_api_operations.c:583 (discriminator 1)
    20b6:	6afa      	ldr	r2, [r7, #44]	; 0x2c
    20b8:	f04f 0301 	mov.w	r3, #1
    20bc:	f2cf 0310 	movt	r3, #61456	; 0xf010
    20c0:	429a      	cmp	r2, r3
    20c2:	d009      	beq.n	20d8 <TEE_SetOperationKey+0x138>
/home/meander/optee/optee_os/lib/libutee/tee_api_operations.c:584
    20c4:	6afa      	ldr	r2, [r7, #44]	; 0x2c
    20c6:	f04f 0303 	mov.w	r3, #3
    20ca:	f2cf 0310 	movt	r3, #61456	; 0xf010
    20ce:	429a      	cmp	r2, r3
    20d0:	d002      	beq.n	20d8 <TEE_SetOperationKey+0x138>
/home/meander/optee/optee_os/lib/libutee/tee_api_operations.c:586
    20d2:	6af8      	ldr	r0, [r7, #44]	; 0x2c
    20d4:	f009 f83c 	bl	b150 <TEE_Panic>
/home/meander/optee/optee_os/lib/libutee/tee_api_operations.c:588
    20d8:	6afb      	ldr	r3, [r7, #44]	; 0x2c
/home/meander/optee/optee_os/lib/libutee/tee_api_operations.c:589
    20da:	4618      	mov	r0, r3
    20dc:	f107 0730 	add.w	r7, r7, #48	; 0x30
    20e0:	46bd      	mov	sp, r7
    20e2:	bd80      	pop	{r7, pc}

000020e4 <TEE_SetOperationKey2>:
TEE_SetOperationKey2():
/home/meander/optee/optee_os/lib/libutee/tee_api_operations.c:593
    20e4:	e96d 7e02 	strd	r7, lr, [sp, #-8]!
    20e8:	b094      	sub	sp, #80	; 0x50
    20ea:	af00      	add	r7, sp, #0
    20ec:	60f8      	str	r0, [r7, #12]
    20ee:	60b9      	str	r1, [r7, #8]
    20f0:	607a      	str	r2, [r7, #4]
/home/meander/optee/optee_os/lib/libutee/tee_api_operations.c:595
    20f2:	f04f 0300 	mov.w	r3, #0
    20f6:	64bb      	str	r3, [r7, #72]	; 0x48
/home/meander/optee/optee_os/lib/libutee/tee_api_operations.c:599
    20f8:	68fb      	ldr	r3, [r7, #12]
    20fa:	2b00      	cmp	r3, #0
    20fc:	d105      	bne.n	210a <TEE_SetOperationKey2+0x26>
/home/meander/optee/optee_os/lib/libutee/tee_api_operations.c:600
    20fe:	f04f 0306 	mov.w	r3, #6
    2102:	f6cf 73ff 	movt	r3, #65535	; 0xffff
    2106:	64fb      	str	r3, [r7, #76]	; 0x4c
/home/meander/optee/optee_os/lib/libutee/tee_api_operations.c:601
    2108:	e0dc      	b.n	22c4 <TEE_SetOperationKey2+0x1e0>
/home/meander/optee/optee_os/lib/libutee/tee_api_operations.c:604
    210a:	68fb      	ldr	r3, [r7, #12]
    210c:	6a9b      	ldr	r3, [r3, #40]	; 0x28
    210e:	2b00      	cmp	r3, #0
    2110:	d005      	beq.n	211e <TEE_SetOperationKey2+0x3a>
/home/meander/optee/optee_os/lib/libutee/tee_api_operations.c:605
    2112:	f04f 0306 	mov.w	r3, #6
    2116:	f6cf 73ff 	movt	r3, #65535	; 0xffff
    211a:	64fb      	str	r3, [r7, #76]	; 0x4c
/home/meander/optee/optee_os/lib/libutee/tee_api_operations.c:606
    211c:	e0d2      	b.n	22c4 <TEE_SetOperationKey2+0x1e0>
/home/meander/optee/optee_os/lib/libutee/tee_api_operations.c:613
    211e:	68bb      	ldr	r3, [r7, #8]
    2120:	2b00      	cmp	r3, #0
    2122:	d002      	beq.n	212a <TEE_SetOperationKey2+0x46>
/home/meander/optee/optee_os/lib/libutee/tee_api_operations.c:613 (discriminator 1)
    2124:	687b      	ldr	r3, [r7, #4]
    2126:	2b00      	cmp	r3, #0
    2128:	d115      	bne.n	2156 <TEE_SetOperationKey2+0x72>
/home/meander/optee/optee_os/lib/libutee/tee_api_operations.c:615
    212a:	68bb      	ldr	r3, [r7, #8]
    212c:	2b00      	cmp	r3, #0
    212e:	d104      	bne.n	213a <TEE_SetOperationKey2+0x56>
/home/meander/optee/optee_os/lib/libutee/tee_api_operations.c:616
    2130:	68fb      	ldr	r3, [r7, #12]
    2132:	6a1b      	ldr	r3, [r3, #32]
    2134:	4618      	mov	r0, r3
    2136:	f008 fa7c 	bl	a632 <TEE_ResetTransientObject>
/home/meander/optee/optee_os/lib/libutee/tee_api_operations.c:618
    213a:	687b      	ldr	r3, [r7, #4]
    213c:	2b00      	cmp	r3, #0
    213e:	d104      	bne.n	214a <TEE_SetOperationKey2+0x66>
/home/meander/optee/optee_os/lib/libutee/tee_api_operations.c:619
    2140:	68fb      	ldr	r3, [r7, #12]
    2142:	6a5b      	ldr	r3, [r3, #36]	; 0x24
    2144:	4618      	mov	r0, r3
    2146:	f008 fa74 	bl	a632 <TEE_ResetTransientObject>
/home/meander/optee/optee_os/lib/libutee/tee_api_operations.c:620
    214a:	f04f 0306 	mov.w	r3, #6
    214e:	f6cf 73ff 	movt	r3, #65535	; 0xffff
    2152:	64fb      	str	r3, [r7, #76]	; 0x4c
/home/meander/optee/optee_os/lib/libutee/tee_api_operations.c:621
    2154:	e0b6      	b.n	22c4 <TEE_SetOperationKey2+0x1e0>
/home/meander/optee/optee_os/lib/libutee/tee_api_operations.c:625
    2156:	68fb      	ldr	r3, [r7, #12]
    2158:	685b      	ldr	r3, [r3, #4]
    215a:	2b05      	cmp	r3, #5
    215c:	d105      	bne.n	216a <TEE_SetOperationKey2+0x86>
/home/meander/optee/optee_os/lib/libutee/tee_api_operations.c:626
    215e:	f04f 0306 	mov.w	r3, #6
    2162:	f6cf 73ff 	movt	r3, #65535	; 0xffff
    2166:	64fb      	str	r3, [r7, #76]	; 0x4c
/home/meander/optee/optee_os/lib/libutee/tee_api_operations.c:627
    2168:	e0ac      	b.n	22c4 <TEE_SetOperationKey2+0x1e0>
/home/meander/optee/optee_os/lib/libutee/tee_api_operations.c:631
    216a:	68fb      	ldr	r3, [r7, #12]
    216c:	69db      	ldr	r3, [r3, #28]
    216e:	f403 2300 	and.w	r3, r3, #524288	; 0x80000
    2172:	2b00      	cmp	r3, #0
    2174:	d105      	bne.n	2182 <TEE_SetOperationKey2+0x9e>
/home/meander/optee/optee_os/lib/libutee/tee_api_operations.c:633
    2176:	f04f 0306 	mov.w	r3, #6
    217a:	f6cf 73ff 	movt	r3, #65535	; 0xffff
    217e:	64fb      	str	r3, [r7, #76]	; 0x4c
/home/meander/optee/optee_os/lib/libutee/tee_api_operations.c:634
    2180:	e0a0      	b.n	22c4 <TEE_SetOperationKey2+0x1e0>
/home/meander/optee/optee_os/lib/libutee/tee_api_operations.c:637
    2182:	f107 032c 	add.w	r3, r7, #44	; 0x2c
    2186:	4619      	mov	r1, r3
    2188:	68b8      	ldr	r0, [r7, #8]
    218a:	f008 f897 	bl	a2bc <TEE_GetObjectInfo1>
    218e:	64f8      	str	r0, [r7, #76]	; 0x4c
/home/meander/optee/optee_os/lib/libutee/tee_api_operations.c:639
    2190:	6cfb      	ldr	r3, [r7, #76]	; 0x4c
    2192:	2b00      	cmp	r3, #0
    2194:	f040 808f 	bne.w	22b6 <TEE_SetOperationKey2+0x1d2>
/home/meander/optee/optee_os/lib/libutee/tee_api_operations.c:643
    2198:	6bba      	ldr	r2, [r7, #56]	; 0x38
    219a:	68fb      	ldr	r3, [r7, #12]
    219c:	699b      	ldr	r3, [r3, #24]
    219e:	ea02 0203 	and.w	r2, r2, r3
/home/meander/optee/optee_os/lib/libutee/tee_api_operations.c:644
    21a2:	68fb      	ldr	r3, [r7, #12]
    21a4:	699b      	ldr	r3, [r3, #24]
/home/meander/optee/optee_os/lib/libutee/tee_api_operations.c:643
    21a6:	429a      	cmp	r2, r3
    21a8:	d005      	beq.n	21b6 <TEE_SetOperationKey2+0xd2>
/home/meander/optee/optee_os/lib/libutee/tee_api_operations.c:645
    21aa:	f04f 0306 	mov.w	r3, #6
    21ae:	f6cf 73ff 	movt	r3, #65535	; 0xffff
    21b2:	64fb      	str	r3, [r7, #76]	; 0x4c
/home/meander/optee/optee_os/lib/libutee/tee_api_operations.c:646
    21b4:	e086      	b.n	22c4 <TEE_SetOperationKey2+0x1e0>
/home/meander/optee/optee_os/lib/libutee/tee_api_operations.c:649
    21b6:	f107 0310 	add.w	r3, r7, #16
    21ba:	4619      	mov	r1, r3
    21bc:	6878      	ldr	r0, [r7, #4]
    21be:	f008 f87d 	bl	a2bc <TEE_GetObjectInfo1>
    21c2:	64f8      	str	r0, [r7, #76]	; 0x4c
/home/meander/optee/optee_os/lib/libutee/tee_api_operations.c:651
    21c4:	6cfb      	ldr	r3, [r7, #76]	; 0x4c
    21c6:	2b00      	cmp	r3, #0
    21c8:	d00c      	beq.n	21e4 <TEE_SetOperationKey2+0x100>
/home/meander/optee/optee_os/lib/libutee/tee_api_operations.c:652
    21ca:	6cfa      	ldr	r2, [r7, #76]	; 0x4c
    21cc:	f04f 0301 	mov.w	r3, #1
    21d0:	f2cf 0310 	movt	r3, #61456	; 0xf010
    21d4:	429a      	cmp	r2, r3
    21d6:	d170      	bne.n	22ba <TEE_SetOperationKey2+0x1d6>
/home/meander/optee/optee_os/lib/libutee/tee_api_operations.c:653
    21d8:	f04f 0302 	mov.w	r3, #2
    21dc:	f2cf 0310 	movt	r3, #61456	; 0xf010
    21e0:	64fb      	str	r3, [r7, #76]	; 0x4c
/home/meander/optee/optee_os/lib/libutee/tee_api_operations.c:654
    21e2:	e06a      	b.n	22ba <TEE_SetOperationKey2+0x1d6>
/home/meander/optee/optee_os/lib/libutee/tee_api_operations.c:658
    21e4:	69fa      	ldr	r2, [r7, #28]
    21e6:	68fb      	ldr	r3, [r7, #12]
    21e8:	699b      	ldr	r3, [r3, #24]
    21ea:	ea02 0203 	and.w	r2, r2, r3
/home/meander/optee/optee_os/lib/libutee/tee_api_operations.c:659
    21ee:	68fb      	ldr	r3, [r7, #12]
    21f0:	699b      	ldr	r3, [r3, #24]
/home/meander/optee/optee_os/lib/libutee/tee_api_operations.c:658
    21f2:	429a      	cmp	r2, r3
    21f4:	d005      	beq.n	2202 <TEE_SetOperationKey2+0x11e>
/home/meander/optee/optee_os/lib/libutee/tee_api_operations.c:660
    21f6:	f04f 0306 	mov.w	r3, #6
    21fa:	f6cf 73ff 	movt	r3, #65535	; 0xffff
    21fe:	64fb      	str	r3, [r7, #76]	; 0x4c
/home/meander/optee/optee_os/lib/libutee/tee_api_operations.c:661
    2200:	e060      	b.n	22c4 <TEE_SetOperationKey2+0x1e0>
/home/meander/optee/optee_os/lib/libutee/tee_api_operations.c:668
    2202:	68fb      	ldr	r3, [r7, #12]
    2204:	681a      	ldr	r2, [r3, #0]
    2206:	f44f 6382 	mov.w	r3, #1040	; 0x410
    220a:	f2c1 0300 	movt	r3, #4096	; 0x1000
    220e:	429a      	cmp	r2, r3
    2210:	d109      	bne.n	2226 <TEE_SetOperationKey2+0x142>
/home/meander/optee/optee_os/lib/libutee/tee_api_operations.c:669 (discriminator 1)
    2212:	6b3a      	ldr	r2, [r7, #48]	; 0x30
    2214:	697b      	ldr	r3, [r7, #20]
/home/meander/optee/optee_os/lib/libutee/tee_api_operations.c:668 (discriminator 1)
    2216:	429a      	cmp	r2, r3
    2218:	d005      	beq.n	2226 <TEE_SetOperationKey2+0x142>
/home/meander/optee/optee_os/lib/libutee/tee_api_operations.c:670
    221a:	f04f 0306 	mov.w	r3, #6
    221e:	f6cf 73ff 	movt	r3, #65535	; 0xffff
    2222:	64fb      	str	r3, [r7, #76]	; 0x4c
/home/meander/optee/optee_os/lib/libutee/tee_api_operations.c:671
    2224:	e04e      	b.n	22c4 <TEE_SetOperationKey2+0x1e0>
/home/meander/optee/optee_os/lib/libutee/tee_api_operations.c:675
    2226:	68fb      	ldr	r3, [r7, #12]
    2228:	691a      	ldr	r2, [r3, #16]
    222a:	6b3b      	ldr	r3, [r7, #48]	; 0x30
    222c:	429a      	cmp	r2, r3
    222e:	d205      	bcs.n	223c <TEE_SetOperationKey2+0x158>
/home/meander/optee/optee_os/lib/libutee/tee_api_operations.c:676
    2230:	f04f 0306 	mov.w	r3, #6
    2234:	f6cf 73ff 	movt	r3, #65535	; 0xffff
    2238:	64fb      	str	r3, [r7, #76]	; 0x4c
/home/meander/optee/optee_os/lib/libutee/tee_api_operations.c:677
    223a:	e043      	b.n	22c4 <TEE_SetOperationKey2+0x1e0>
/home/meander/optee/optee_os/lib/libutee/tee_api_operations.c:684
    223c:	6b3b      	ldr	r3, [r7, #48]	; 0x30
    223e:	64bb      	str	r3, [r7, #72]	; 0x48
/home/meander/optee/optee_os/lib/libutee/tee_api_operations.c:686
    2240:	68fb      	ldr	r3, [r7, #12]
    2242:	6a1b      	ldr	r3, [r3, #32]
    2244:	4618      	mov	r0, r3
    2246:	f008 f9f4 	bl	a632 <TEE_ResetTransientObject>
/home/meander/optee/optee_os/lib/libutee/tee_api_operations.c:687
    224a:	68fb      	ldr	r3, [r7, #12]
    224c:	6a5b      	ldr	r3, [r3, #36]	; 0x24
    224e:	4618      	mov	r0, r3
    2250:	f008 f9ef 	bl	a632 <TEE_ResetTransientObject>
/home/meander/optee/optee_os/lib/libutee/tee_api_operations.c:688
    2254:	68fb      	ldr	r3, [r7, #12]
    2256:	69db      	ldr	r3, [r3, #28]
    2258:	f423 2280 	bic.w	r2, r3, #262144	; 0x40000
    225c:	68fb      	ldr	r3, [r7, #12]
    225e:	61da      	str	r2, [r3, #28]
/home/meander/optee/optee_os/lib/libutee/tee_api_operations.c:690
    2260:	68fb      	ldr	r3, [r7, #12]
    2262:	6a1b      	ldr	r3, [r3, #32]
    2264:	68b9      	ldr	r1, [r7, #8]
    2266:	4618      	mov	r0, r3
    2268:	f008 fb1c 	bl	a8a4 <TEE_CopyObjectAttributes1>
    226c:	64f8      	str	r0, [r7, #76]	; 0x4c
/home/meander/optee/optee_os/lib/libutee/tee_api_operations.c:691
    226e:	6cfb      	ldr	r3, [r7, #76]	; 0x4c
    2270:	2b00      	cmp	r3, #0
    2272:	d124      	bne.n	22be <TEE_SetOperationKey2+0x1da>
/home/meander/optee/optee_os/lib/libutee/tee_api_operations.c:694
    2274:	68fb      	ldr	r3, [r7, #12]
    2276:	6a5b      	ldr	r3, [r3, #36]	; 0x24
    2278:	6879      	ldr	r1, [r7, #4]
    227a:	4618      	mov	r0, r3
    227c:	f008 fb12 	bl	a8a4 <TEE_CopyObjectAttributes1>
    2280:	64f8      	str	r0, [r7, #76]	; 0x4c
/home/meander/optee/optee_os/lib/libutee/tee_api_operations.c:695
    2282:	6cfb      	ldr	r3, [r7, #76]	; 0x4c
    2284:	2b00      	cmp	r3, #0
    2286:	d00c      	beq.n	22a2 <TEE_SetOperationKey2+0x1be>
/home/meander/optee/optee_os/lib/libutee/tee_api_operations.c:696
    2288:	6cfa      	ldr	r2, [r7, #76]	; 0x4c
    228a:	f04f 0301 	mov.w	r3, #1
    228e:	f2cf 0310 	movt	r3, #61456	; 0xf010
    2292:	429a      	cmp	r2, r3
    2294:	d115      	bne.n	22c2 <TEE_SetOperationKey2+0x1de>
/home/meander/optee/optee_os/lib/libutee/tee_api_operations.c:697
    2296:	f04f 0302 	mov.w	r3, #2
    229a:	f2cf 0310 	movt	r3, #61456	; 0xf010
    229e:	64fb      	str	r3, [r7, #76]	; 0x4c
/home/meander/optee/optee_os/lib/libutee/tee_api_operations.c:698
    22a0:	e00f      	b.n	22c2 <TEE_SetOperationKey2+0x1de>
/home/meander/optee/optee_os/lib/libutee/tee_api_operations.c:701
    22a2:	68fb      	ldr	r3, [r7, #12]
    22a4:	69db      	ldr	r3, [r3, #28]
    22a6:	f443 2280 	orr.w	r2, r3, #262144	; 0x40000
    22aa:	68fb      	ldr	r3, [r7, #12]
    22ac:	61da      	str	r2, [r3, #28]
/home/meander/optee/optee_os/lib/libutee/tee_api_operations.c:703
    22ae:	68fb      	ldr	r3, [r7, #12]
    22b0:	6cba      	ldr	r2, [r7, #72]	; 0x48
    22b2:	615a      	str	r2, [r3, #20]
    22b4:	e006      	b.n	22c4 <TEE_SetOperationKey2+0x1e0>
/home/meander/optee/optee_os/lib/libutee/tee_api_operations.c:640
    22b6:	bf00      	nop
    22b8:	e004      	b.n	22c4 <TEE_SetOperationKey2+0x1e0>
/home/meander/optee/optee_os/lib/libutee/tee_api_operations.c:654
    22ba:	bf00      	nop
    22bc:	e002      	b.n	22c4 <TEE_SetOperationKey2+0x1e0>
/home/meander/optee/optee_os/lib/libutee/tee_api_operations.c:692
    22be:	bf00      	nop
    22c0:	e000      	b.n	22c4 <TEE_SetOperationKey2+0x1e0>
/home/meander/optee/optee_os/lib/libutee/tee_api_operations.c:698
    22c2:	bf00      	nop
/home/meander/optee/optee_os/lib/libutee/tee_api_operations.c:706
    22c4:	6cfb      	ldr	r3, [r7, #76]	; 0x4c
    22c6:	2b00      	cmp	r3, #0
    22c8:	d01e      	beq.n	2308 <TEE_SetOperationKey2+0x224>
/home/meander/optee/optee_os/lib/libutee/tee_api_operations.c:706 (discriminator 1)
    22ca:	6cfa      	ldr	r2, [r7, #76]	; 0x4c
    22cc:	f04f 0301 	mov.w	r3, #1
    22d0:	f2cf 0310 	movt	r3, #61456	; 0xf010
    22d4:	429a      	cmp	r2, r3
    22d6:	d017      	beq.n	2308 <TEE_SetOperationKey2+0x224>
/home/meander/optee/optee_os/lib/libutee/tee_api_operations.c:707
    22d8:	6cfa      	ldr	r2, [r7, #76]	; 0x4c
    22da:	f04f 0302 	mov.w	r3, #2
    22de:	f2cf 0310 	movt	r3, #61456	; 0xf010
    22e2:	429a      	cmp	r2, r3
    22e4:	d010      	beq.n	2308 <TEE_SetOperationKey2+0x224>
/home/meander/optee/optee_os/lib/libutee/tee_api_operations.c:708
    22e6:	6cfa      	ldr	r2, [r7, #76]	; 0x4c
    22e8:	f04f 0303 	mov.w	r3, #3
    22ec:	f2cf 0310 	movt	r3, #61456	; 0xf010
    22f0:	429a      	cmp	r2, r3
    22f2:	d009      	beq.n	2308 <TEE_SetOperationKey2+0x224>
/home/meander/optee/optee_os/lib/libutee/tee_api_operations.c:709
    22f4:	6cfa      	ldr	r2, [r7, #76]	; 0x4c
    22f6:	f04f 0304 	mov.w	r3, #4
    22fa:	f2cf 0310 	movt	r3, #61456	; 0xf010
    22fe:	429a      	cmp	r2, r3
    2300:	d002      	beq.n	2308 <TEE_SetOperationKey2+0x224>
/home/meander/optee/optee_os/lib/libutee/tee_api_operations.c:711
    2302:	6cf8      	ldr	r0, [r7, #76]	; 0x4c
    2304:	f008 ff24 	bl	b150 <TEE_Panic>
/home/meander/optee/optee_os/lib/libutee/tee_api_operations.c:713
    2308:	6cfb      	ldr	r3, [r7, #76]	; 0x4c
/home/meander/optee/optee_os/lib/libutee/tee_api_operations.c:714
    230a:	4618      	mov	r0, r3
    230c:	f107 0750 	add.w	r7, r7, #80	; 0x50
    2310:	46bd      	mov	sp, r7
    2312:	bd80      	pop	{r7, pc}

00002314 <TEE_CopyOperation>:
TEE_CopyOperation():
/home/meander/optee/optee_os/lib/libutee/tee_api_operations.c:717
    2314:	e96d 7e02 	strd	r7, lr, [sp, #-8]!
    2318:	b086      	sub	sp, #24
    231a:	af00      	add	r7, sp, #0
    231c:	6078      	str	r0, [r7, #4]
    231e:	6039      	str	r1, [r7, #0]
/home/meander/optee/optee_os/lib/libutee/tee_api_operations.c:720
    2320:	687b      	ldr	r3, [r7, #4]
    2322:	2b00      	cmp	r3, #0
    2324:	d002      	beq.n	232c <TEE_CopyOperation+0x18>
/home/meander/optee/optee_os/lib/libutee/tee_api_operations.c:720 (discriminator 1)
    2326:	683b      	ldr	r3, [r7, #0]
    2328:	2b00      	cmp	r3, #0
    232a:	d103      	bne.n	2334 <TEE_CopyOperation+0x20>
/home/meander/optee/optee_os/lib/libutee/tee_api_operations.c:721
    232c:	f04f 0000 	mov.w	r0, #0
    2330:	f008 ff0e 	bl	b150 <TEE_Panic>
/home/meander/optee/optee_os/lib/libutee/tee_api_operations.c:722
    2334:	687b      	ldr	r3, [r7, #4]
    2336:	681a      	ldr	r2, [r3, #0]
    2338:	683b      	ldr	r3, [r7, #0]
    233a:	681b      	ldr	r3, [r3, #0]
    233c:	429a      	cmp	r2, r3
    233e:	d003      	beq.n	2348 <TEE_CopyOperation+0x34>
/home/meander/optee/optee_os/lib/libutee/tee_api_operations.c:723
    2340:	f04f 0000 	mov.w	r0, #0
    2344:	f008 ff04 	bl	b150 <TEE_Panic>
/home/meander/optee/optee_os/lib/libutee/tee_api_operations.c:724
    2348:	683b      	ldr	r3, [r7, #0]
    234a:	685b      	ldr	r3, [r3, #4]
    234c:	2b05      	cmp	r3, #5
    234e:	d021      	beq.n	2394 <TEE_CopyOperation+0x80>
/home/meander/optee/optee_os/lib/libutee/tee_api_operations.c:725
    2350:	f04f 0300 	mov.w	r3, #0
    2354:	617b      	str	r3, [r7, #20]
/home/meander/optee/optee_os/lib/libutee/tee_api_operations.c:726
    2356:	f04f 0300 	mov.w	r3, #0
    235a:	613b      	str	r3, [r7, #16]
/home/meander/optee/optee_os/lib/libutee/tee_api_operations.c:728
    235c:	683b      	ldr	r3, [r7, #0]
    235e:	69db      	ldr	r3, [r3, #28]
    2360:	f403 2380 	and.w	r3, r3, #262144	; 0x40000
    2364:	2b00      	cmp	r3, #0
    2366:	d005      	beq.n	2374 <TEE_CopyOperation+0x60>
/home/meander/optee/optee_os/lib/libutee/tee_api_operations.c:729
    2368:	683b      	ldr	r3, [r7, #0]
    236a:	6a1b      	ldr	r3, [r3, #32]
    236c:	617b      	str	r3, [r7, #20]
/home/meander/optee/optee_os/lib/libutee/tee_api_operations.c:730
    236e:	683b      	ldr	r3, [r7, #0]
    2370:	6a5b      	ldr	r3, [r3, #36]	; 0x24
    2372:	613b      	str	r3, [r7, #16]
/home/meander/optee/optee_os/lib/libutee/tee_api_operations.c:733
    2374:	683b      	ldr	r3, [r7, #0]
    2376:	69db      	ldr	r3, [r3, #28]
    2378:	f403 2300 	and.w	r3, r3, #524288	; 0x80000
    237c:	2b00      	cmp	r3, #0
    237e:	d104      	bne.n	238a <TEE_CopyOperation+0x76>
/home/meander/optee/optee_os/lib/libutee/tee_api_operations.c:735
    2380:	6979      	ldr	r1, [r7, #20]
    2382:	6878      	ldr	r0, [r7, #4]
    2384:	f7ff fe0c 	bl	1fa0 <TEE_SetOperationKey>
    2388:	e004      	b.n	2394 <TEE_CopyOperation+0x80>
/home/meander/optee/optee_os/lib/libutee/tee_api_operations.c:737
    238a:	693a      	ldr	r2, [r7, #16]
    238c:	6979      	ldr	r1, [r7, #20]
    238e:	6878      	ldr	r0, [r7, #4]
    2390:	f7ff fea8 	bl	20e4 <TEE_SetOperationKey2>
/home/meander/optee/optee_os/lib/libutee/tee_api_operations.c:740
    2394:	683b      	ldr	r3, [r7, #0]
    2396:	69da      	ldr	r2, [r3, #28]
    2398:	687b      	ldr	r3, [r7, #4]
    239a:	61da      	str	r2, [r3, #28]
/home/meander/optee/optee_os/lib/libutee/tee_api_operations.c:741
    239c:	683b      	ldr	r3, [r7, #0]
    239e:	695a      	ldr	r2, [r3, #20]
    23a0:	687b      	ldr	r3, [r7, #4]
    23a2:	615a      	str	r2, [r3, #20]
/home/meander/optee/optee_os/lib/libutee/tee_api_operations.c:742
    23a4:	683b      	ldr	r3, [r7, #0]
    23a6:	6a9a      	ldr	r2, [r3, #40]	; 0x28
    23a8:	687b      	ldr	r3, [r7, #4]
    23aa:	629a      	str	r2, [r3, #40]	; 0x28
/home/meander/optee/optee_os/lib/libutee/tee_api_operations.c:744
    23ac:	687b      	ldr	r3, [r7, #4]
    23ae:	f893 2030 	ldrb.w	r2, [r3, #48]	; 0x30
    23b2:	683b      	ldr	r3, [r7, #0]
    23b4:	f893 3030 	ldrb.w	r3, [r3, #48]	; 0x30
    23b8:	429a      	cmp	r2, r3
    23ba:	d105      	bne.n	23c8 <TEE_CopyOperation+0xb4>
/home/meander/optee/optee_os/lib/libutee/tee_api_operations.c:745 (discriminator 1)
    23bc:	687b      	ldr	r3, [r7, #4]
    23be:	6b5a      	ldr	r2, [r3, #52]	; 0x34
    23c0:	683b      	ldr	r3, [r7, #0]
    23c2:	6b5b      	ldr	r3, [r3, #52]	; 0x34
/home/meander/optee/optee_os/lib/libutee/tee_api_operations.c:744 (discriminator 1)
    23c4:	429a      	cmp	r2, r3
    23c6:	d003      	beq.n	23d0 <TEE_CopyOperation+0xbc>
/home/meander/optee/optee_os/lib/libutee/tee_api_operations.c:746
    23c8:	f04f 0000 	mov.w	r0, #0
    23cc:	f008 fec0 	bl	b150 <TEE_Panic>
/home/meander/optee/optee_os/lib/libutee/tee_api_operations.c:748
    23d0:	687b      	ldr	r3, [r7, #4]
    23d2:	6adb      	ldr	r3, [r3, #44]	; 0x2c
    23d4:	2b00      	cmp	r3, #0
    23d6:	d015      	beq.n	2404 <TEE_CopyOperation+0xf0>
/home/meander/optee/optee_os/lib/libutee/tee_api_operations.c:749
    23d8:	683b      	ldr	r3, [r7, #0]
    23da:	6adb      	ldr	r3, [r3, #44]	; 0x2c
    23dc:	2b00      	cmp	r3, #0
    23de:	d103      	bne.n	23e8 <TEE_CopyOperation+0xd4>
/home/meander/optee/optee_os/lib/libutee/tee_api_operations.c:750
    23e0:	f04f 0000 	mov.w	r0, #0
    23e4:	f008 feb4 	bl	b150 <TEE_Panic>
/home/meander/optee/optee_os/lib/libutee/tee_api_operations.c:752
    23e8:	687b      	ldr	r3, [r7, #4]
    23ea:	6ad8      	ldr	r0, [r3, #44]	; 0x2c
    23ec:	683b      	ldr	r3, [r7, #0]
    23ee:	6ad9      	ldr	r1, [r3, #44]	; 0x2c
    23f0:	683b      	ldr	r3, [r7, #0]
    23f2:	6b9b      	ldr	r3, [r3, #56]	; 0x38
    23f4:	461a      	mov	r2, r3
    23f6:	f008 ff9e 	bl	b336 <memcpy>
/home/meander/optee/optee_os/lib/libutee/tee_api_operations.c:753
    23fa:	683b      	ldr	r3, [r7, #0]
    23fc:	6b9a      	ldr	r2, [r3, #56]	; 0x38
    23fe:	687b      	ldr	r3, [r7, #4]
    2400:	639a      	str	r2, [r3, #56]	; 0x38
    2402:	e007      	b.n	2414 <TEE_CopyOperation+0x100>
/home/meander/optee/optee_os/lib/libutee/tee_api_operations.c:754
    2404:	683b      	ldr	r3, [r7, #0]
    2406:	6adb      	ldr	r3, [r3, #44]	; 0x2c
    2408:	2b00      	cmp	r3, #0
    240a:	d003      	beq.n	2414 <TEE_CopyOperation+0x100>
/home/meander/optee/optee_os/lib/libutee/tee_api_operations.c:755
    240c:	f04f 0000 	mov.w	r0, #0
    2410:	f008 fe9e 	bl	b150 <TEE_Panic>
/home/meander/optee/optee_os/lib/libutee/tee_api_operations.c:758
    2414:	687b      	ldr	r3, [r7, #4]
    2416:	6bda      	ldr	r2, [r3, #60]	; 0x3c
    2418:	683b      	ldr	r3, [r7, #0]
    241a:	6bdb      	ldr	r3, [r3, #60]	; 0x3c
    241c:	4619      	mov	r1, r3
    241e:	4610      	mov	r0, r2
    2420:	f002 e810 	blx	4444 <utee_cryp_state_copy>
    2424:	60f8      	str	r0, [r7, #12]
/home/meander/optee/optee_os/lib/libutee/tee_api_operations.c:759
    2426:	68fb      	ldr	r3, [r7, #12]
    2428:	2b00      	cmp	r3, #0
    242a:	d002      	beq.n	2432 <TEE_CopyOperation+0x11e>
/home/meander/optee/optee_os/lib/libutee/tee_api_operations.c:760
    242c:	68f8      	ldr	r0, [r7, #12]
    242e:	f008 fe8f 	bl	b150 <TEE_Panic>
/home/meander/optee/optee_os/lib/libutee/tee_api_operations.c:761
    2432:	bf00      	nop
    2434:	f107 0718 	add.w	r7, r7, #24
    2438:	46bd      	mov	sp, r7
    243a:	bd80      	pop	{r7, pc}

0000243c <init_hash_operation>:
init_hash_operation():
/home/meander/optee/optee_os/lib/libutee/tee_api_operations.c:767
    243c:	e96d 7e02 	strd	r7, lr, [sp, #-8]!
    2440:	b086      	sub	sp, #24
    2442:	af00      	add	r7, sp, #0
    2444:	60f8      	str	r0, [r7, #12]
    2446:	60b9      	str	r1, [r7, #8]
    2448:	607a      	str	r2, [r7, #4]
/home/meander/optee/optee_os/lib/libutee/tee_api_operations.c:774
    244a:	68fb      	ldr	r3, [r7, #12]
    244c:	6bdb      	ldr	r3, [r3, #60]	; 0x3c
    244e:	687a      	ldr	r2, [r7, #4]
    2450:	68b9      	ldr	r1, [r7, #8]
    2452:	4618      	mov	r0, r3
    2454:	f002 e80a 	blx	446c <utee_hash_init>
    2458:	6178      	str	r0, [r7, #20]
/home/meander/optee/optee_os/lib/libutee/tee_api_operations.c:775
    245a:	697b      	ldr	r3, [r7, #20]
    245c:	2b00      	cmp	r3, #0
    245e:	d002      	beq.n	2466 <init_hash_operation+0x2a>
/home/meander/optee/optee_os/lib/libutee/tee_api_operations.c:776
    2460:	6978      	ldr	r0, [r7, #20]
    2462:	f008 fe75 	bl	b150 <TEE_Panic>
/home/meander/optee/optee_os/lib/libutee/tee_api_operations.c:777
    2466:	68fb      	ldr	r3, [r7, #12]
    2468:	f04f 0200 	mov.w	r2, #0
    246c:	639a      	str	r2, [r3, #56]	; 0x38
/home/meander/optee/optee_os/lib/libutee/tee_api_operations.c:778
    246e:	68fb      	ldr	r3, [r7, #12]
    2470:	69db      	ldr	r3, [r3, #28]
    2472:	f443 3200 	orr.w	r2, r3, #131072	; 0x20000
    2476:	68fb      	ldr	r3, [r7, #12]
    2478:	61da      	str	r2, [r3, #28]
/home/meander/optee/optee_os/lib/libutee/tee_api_operations.c:779
    247a:	bf00      	nop
    247c:	f107 0718 	add.w	r7, r7, #24
    2480:	46bd      	mov	sp, r7
    2482:	bd80      	pop	{r7, pc}

00002484 <TEE_DigestUpdate>:
TEE_DigestUpdate():
/home/meander/optee/optee_os/lib/libutee/tee_api_operations.c:783
    2484:	e96d 7e02 	strd	r7, lr, [sp, #-8]!
    2488:	b086      	sub	sp, #24
    248a:	af00      	add	r7, sp, #0
    248c:	60f8      	str	r0, [r7, #12]
    248e:	60b9      	str	r1, [r7, #8]
    2490:	607a      	str	r2, [r7, #4]
/home/meander/optee/optee_os/lib/libutee/tee_api_operations.c:784
    2492:	f04f 0300 	mov.w	r3, #0
    2496:	f6cf 73ff 	movt	r3, #65535	; 0xffff
    249a:	617b      	str	r3, [r7, #20]
/home/meander/optee/optee_os/lib/libutee/tee_api_operations.c:786
    249c:	68fb      	ldr	r3, [r7, #12]
    249e:	2b00      	cmp	r3, #0
    24a0:	d003      	beq.n	24aa <TEE_DigestUpdate+0x26>
/home/meander/optee/optee_os/lib/libutee/tee_api_operations.c:787 (discriminator 1)
    24a2:	68fb      	ldr	r3, [r7, #12]
    24a4:	685b      	ldr	r3, [r3, #4]
/home/meander/optee/optee_os/lib/libutee/tee_api_operations.c:786 (discriminator 1)
    24a6:	2b05      	cmp	r3, #5
    24a8:	d003      	beq.n	24b2 <TEE_DigestUpdate+0x2e>
/home/meander/optee/optee_os/lib/libutee/tee_api_operations.c:788
    24aa:	f04f 0000 	mov.w	r0, #0
    24ae:	f008 fe4f 	bl	b150 <TEE_Panic>
/home/meander/optee/optee_os/lib/libutee/tee_api_operations.c:790
    24b2:	68fb      	ldr	r3, [r7, #12]
    24b4:	f04f 0201 	mov.w	r2, #1
    24b8:	629a      	str	r2, [r3, #40]	; 0x28
/home/meander/optee/optee_os/lib/libutee/tee_api_operations.c:792
    24ba:	68fb      	ldr	r3, [r7, #12]
    24bc:	6bdb      	ldr	r3, [r3, #60]	; 0x3c
    24be:	687a      	ldr	r2, [r7, #4]
    24c0:	68b9      	ldr	r1, [r7, #8]
    24c2:	4618      	mov	r0, r3
    24c4:	f001 efdc 	blx	4480 <utee_hash_update>
    24c8:	6178      	str	r0, [r7, #20]
/home/meander/optee/optee_os/lib/libutee/tee_api_operations.c:793
    24ca:	697b      	ldr	r3, [r7, #20]
    24cc:	2b00      	cmp	r3, #0
    24ce:	d002      	beq.n	24d6 <TEE_DigestUpdate+0x52>
/home/meander/optee/optee_os/lib/libutee/tee_api_operations.c:794
    24d0:	6978      	ldr	r0, [r7, #20]
    24d2:	f008 fe3d 	bl	b150 <TEE_Panic>
/home/meander/optee/optee_os/lib/libutee/tee_api_operations.c:795
    24d6:	bf00      	nop
    24d8:	f107 0718 	add.w	r7, r7, #24
    24dc:	46bd      	mov	sp, r7
    24de:	bd80      	pop	{r7, pc}

000024e0 <TEE_DigestDoFinal>:
TEE_DigestDoFinal():
/home/meander/optee/optee_os/lib/libutee/tee_api_operations.c:799
    24e0:	f84d 4d0c 	str.w	r4, [sp, #-12]!
    24e4:	e9cd 7e01 	strd	r7, lr, [sp, #4]
    24e8:	b08b      	sub	sp, #44	; 0x2c
    24ea:	af02      	add	r7, sp, #8
    24ec:	60f8      	str	r0, [r7, #12]
    24ee:	60b9      	str	r1, [r7, #8]
    24f0:	607a      	str	r2, [r7, #4]
    24f2:	603b      	str	r3, [r7, #0]
/home/meander/optee/optee_os/lib/libutee/tee_api_operations.c:803
    24f4:	68fb      	ldr	r3, [r7, #12]
    24f6:	2b00      	cmp	r3, #0
    24f8:	d00f      	beq.n	251a <TEE_DigestDoFinal+0x3a>
/home/meander/optee/optee_os/lib/libutee/tee_api_operations.c:803 (discriminator 1)
    24fa:	68bb      	ldr	r3, [r7, #8]
    24fc:	2b00      	cmp	r3, #0
    24fe:	d102      	bne.n	2506 <TEE_DigestDoFinal+0x26>
/home/meander/optee/optee_os/lib/libutee/tee_api_operations.c:804
    2500:	687b      	ldr	r3, [r7, #4]
    2502:	2b00      	cmp	r3, #0
    2504:	d109      	bne.n	251a <TEE_DigestDoFinal+0x3a>
/home/meander/optee/optee_os/lib/libutee/tee_api_operations.c:804 (discriminator 1)
    2506:	683b      	ldr	r3, [r7, #0]
    2508:	2b00      	cmp	r3, #0
    250a:	d006      	beq.n	251a <TEE_DigestDoFinal+0x3a>
/home/meander/optee/optee_os/lib/libutee/tee_api_operations.c:805
    250c:	6b3b      	ldr	r3, [r7, #48]	; 0x30
    250e:	2b00      	cmp	r3, #0
    2510:	d003      	beq.n	251a <TEE_DigestDoFinal+0x3a>
/home/meander/optee/optee_os/lib/libutee/tee_api_operations.c:807
    2512:	68fb      	ldr	r3, [r7, #12]
    2514:	685b      	ldr	r3, [r3, #4]
/home/meander/optee/optee_os/lib/libutee/tee_api_operations.c:806
    2516:	2b05      	cmp	r3, #5
    2518:	d005      	beq.n	2526 <TEE_DigestDoFinal+0x46>
/home/meander/optee/optee_os/lib/libutee/tee_api_operations.c:808
    251a:	f04f 0306 	mov.w	r3, #6
    251e:	f6cf 73ff 	movt	r3, #65535	; 0xffff
    2522:	61fb      	str	r3, [r7, #28]
/home/meander/optee/optee_os/lib/libutee/tee_api_operations.c:809
    2524:	e025      	b.n	2572 <TEE_DigestDoFinal+0x92>
/home/meander/optee/optee_os/lib/libutee/tee_api_operations.c:812
    2526:	6b3b      	ldr	r3, [r7, #48]	; 0x30
    2528:	681b      	ldr	r3, [r3, #0]
    252a:	f04f 0400 	mov.w	r4, #0
    252e:	e9c7 3404 	strd	r3, r4, [r7, #16]
/home/meander/optee/optee_os/lib/libutee/tee_api_operations.c:813
    2532:	68fb      	ldr	r3, [r7, #12]
    2534:	6bd8      	ldr	r0, [r3, #60]	; 0x3c
    2536:	f107 0310 	add.w	r3, r7, #16
    253a:	9300      	str	r3, [sp, #0]
    253c:	683b      	ldr	r3, [r7, #0]
    253e:	687a      	ldr	r2, [r7, #4]
    2540:	68b9      	ldr	r1, [r7, #8]
    2542:	f001 efa8 	blx	4494 <utee_hash_final>
    2546:	61f8      	str	r0, [r7, #28]
/home/meander/optee/optee_os/lib/libutee/tee_api_operations.c:814
    2548:	e9d7 3404 	ldrd	r3, r4, [r7, #16]
    254c:	461a      	mov	r2, r3
    254e:	6b3b      	ldr	r3, [r7, #48]	; 0x30
    2550:	601a      	str	r2, [r3, #0]
/home/meander/optee/optee_os/lib/libutee/tee_api_operations.c:815
    2552:	69fb      	ldr	r3, [r7, #28]
    2554:	2b00      	cmp	r3, #0
    2556:	d10b      	bne.n	2570 <TEE_DigestDoFinal+0x90>
/home/meander/optee/optee_os/lib/libutee/tee_api_operations.c:819
    2558:	f04f 0200 	mov.w	r2, #0
    255c:	f04f 0100 	mov.w	r1, #0
    2560:	68f8      	ldr	r0, [r7, #12]
    2562:	f7ff ff6b 	bl	243c <init_hash_operation>
/home/meander/optee/optee_os/lib/libutee/tee_api_operations.c:821
    2566:	68fb      	ldr	r3, [r7, #12]
    2568:	f04f 0200 	mov.w	r2, #0
    256c:	629a      	str	r2, [r3, #40]	; 0x28
    256e:	e000      	b.n	2572 <TEE_DigestDoFinal+0x92>
/home/meander/optee/optee_os/lib/libutee/tee_api_operations.c:816
    2570:	bf00      	nop
/home/meander/optee/optee_os/lib/libutee/tee_api_operations.c:824
    2572:	69fb      	ldr	r3, [r7, #28]
    2574:	2b00      	cmp	r3, #0
    2576:	d009      	beq.n	258c <TEE_DigestDoFinal+0xac>
/home/meander/optee/optee_os/lib/libutee/tee_api_operations.c:824 (discriminator 1)
    2578:	69fa      	ldr	r2, [r7, #28]
    257a:	f04f 0310 	mov.w	r3, #16
    257e:	f6cf 73ff 	movt	r3, #65535	; 0xffff
    2582:	429a      	cmp	r2, r3
    2584:	d002      	beq.n	258c <TEE_DigestDoFinal+0xac>
/home/meander/optee/optee_os/lib/libutee/tee_api_operations.c:826
    2586:	69f8      	ldr	r0, [r7, #28]
    2588:	f008 fde2 	bl	b150 <TEE_Panic>
/home/meander/optee/optee_os/lib/libutee/tee_api_operations.c:828
    258c:	69fb      	ldr	r3, [r7, #28]
/home/meander/optee/optee_os/lib/libutee/tee_api_operations.c:829
    258e:	4618      	mov	r0, r3
    2590:	f107 0724 	add.w	r7, r7, #36	; 0x24
    2594:	46bd      	mov	sp, r7
    2596:	e9dd 4700 	ldrd	r4, r7, [sp]
    259a:	b002      	add	sp, #8
    259c:	f85d fb04 	ldr.w	pc, [sp], #4

000025a0 <TEE_CipherInit>:
TEE_CipherInit():
/home/meander/optee/optee_os/lib/libutee/tee_api_operations.c:835
    25a0:	e96d 7e02 	strd	r7, lr, [sp, #-8]!
    25a4:	b086      	sub	sp, #24
    25a6:	af00      	add	r7, sp, #0
    25a8:	60f8      	str	r0, [r7, #12]
    25aa:	60b9      	str	r1, [r7, #8]
    25ac:	607a      	str	r2, [r7, #4]
/home/meander/optee/optee_os/lib/libutee/tee_api_operations.c:838
    25ae:	68fb      	ldr	r3, [r7, #12]
    25b0:	2b00      	cmp	r3, #0
    25b2:	d103      	bne.n	25bc <TEE_CipherInit+0x1c>
/home/meander/optee/optee_os/lib/libutee/tee_api_operations.c:839
    25b4:	f04f 0000 	mov.w	r0, #0
    25b8:	f008 fdca 	bl	b150 <TEE_Panic>
/home/meander/optee/optee_os/lib/libutee/tee_api_operations.c:841
    25bc:	68fb      	ldr	r3, [r7, #12]
    25be:	685b      	ldr	r3, [r3, #4]
    25c0:	2b01      	cmp	r3, #1
    25c2:	d003      	beq.n	25cc <TEE_CipherInit+0x2c>
/home/meander/optee/optee_os/lib/libutee/tee_api_operations.c:842
    25c4:	f04f 0000 	mov.w	r0, #0
    25c8:	f008 fdc2 	bl	b150 <TEE_Panic>
/home/meander/optee/optee_os/lib/libutee/tee_api_operations.c:844
    25cc:	68fb      	ldr	r3, [r7, #12]
    25ce:	69db      	ldr	r3, [r3, #28]
    25d0:	f403 2380 	and.w	r3, r3, #262144	; 0x40000
    25d4:	2b00      	cmp	r3, #0
    25d6:	d003      	beq.n	25e0 <TEE_CipherInit+0x40>
/home/meander/optee/optee_os/lib/libutee/tee_api_operations.c:845 (discriminator 1)
    25d8:	68fb      	ldr	r3, [r7, #12]
    25da:	6a1b      	ldr	r3, [r3, #32]
/home/meander/optee/optee_os/lib/libutee/tee_api_operations.c:844 (discriminator 1)
    25dc:	2b00      	cmp	r3, #0
    25de:	d103      	bne.n	25e8 <TEE_CipherInit+0x48>
/home/meander/optee/optee_os/lib/libutee/tee_api_operations.c:846
    25e0:	f04f 0000 	mov.w	r0, #0
    25e4:	f008 fdb4 	bl	b150 <TEE_Panic>
/home/meander/optee/optee_os/lib/libutee/tee_api_operations.c:848
    25e8:	68fb      	ldr	r3, [r7, #12]
    25ea:	6a9b      	ldr	r3, [r3, #40]	; 0x28
    25ec:	2b00      	cmp	r3, #0
    25ee:	d002      	beq.n	25f6 <TEE_CipherInit+0x56>
/home/meander/optee/optee_os/lib/libutee/tee_api_operations.c:849
    25f0:	68f8      	ldr	r0, [r7, #12]
    25f2:	f7ff fc95 	bl	1f20 <TEE_ResetOperation>
/home/meander/optee/optee_os/lib/libutee/tee_api_operations.c:851
    25f6:	68fb      	ldr	r3, [r7, #12]
    25f8:	f04f 0201 	mov.w	r2, #1
    25fc:	629a      	str	r2, [r3, #40]	; 0x28
/home/meander/optee/optee_os/lib/libutee/tee_api_operations.c:853
    25fe:	68fb      	ldr	r3, [r7, #12]
    2600:	6bdb      	ldr	r3, [r3, #60]	; 0x3c
    2602:	687a      	ldr	r2, [r7, #4]
    2604:	68b9      	ldr	r1, [r7, #8]
    2606:	4618      	mov	r0, r3
    2608:	f001 ef50 	blx	44ac <utee_cipher_init>
    260c:	6178      	str	r0, [r7, #20]
/home/meander/optee/optee_os/lib/libutee/tee_api_operations.c:854
    260e:	697b      	ldr	r3, [r7, #20]
    2610:	2b00      	cmp	r3, #0
    2612:	d002      	beq.n	261a <TEE_CipherInit+0x7a>
/home/meander/optee/optee_os/lib/libutee/tee_api_operations.c:855
    2614:	6978      	ldr	r0, [r7, #20]
    2616:	f008 fd9b 	bl	b150 <TEE_Panic>
/home/meander/optee/optee_os/lib/libutee/tee_api_operations.c:857
    261a:	68fb      	ldr	r3, [r7, #12]
    261c:	f04f 0200 	mov.w	r2, #0
    2620:	639a      	str	r2, [r3, #56]	; 0x38
/home/meander/optee/optee_os/lib/libutee/tee_api_operations.c:858
    2622:	68fb      	ldr	r3, [r7, #12]
    2624:	69db      	ldr	r3, [r3, #28]
    2626:	f443 3200 	orr.w	r2, r3, #131072	; 0x20000
    262a:	68fb      	ldr	r3, [r7, #12]
    262c:	61da      	str	r2, [r3, #28]
/home/meander/optee/optee_os/lib/libutee/tee_api_operations.c:859
    262e:	bf00      	nop
    2630:	f107 0718 	add.w	r7, r7, #24
    2634:	46bd      	mov	sp, r7
    2636:	bd80      	pop	{r7, pc}

00002638 <tee_buffer_update>:
tee_buffer_update():
/home/meander/optee/optee_os/lib/libutee/tee_api_operations.c:867
    2638:	f84d 4d0c 	str.w	r4, [sp, #-12]!
    263c:	e9cd 7e01 	strd	r7, lr, [sp, #4]
    2640:	b099      	sub	sp, #100	; 0x64
    2642:	af02      	add	r7, sp, #8
    2644:	60f8      	str	r0, [r7, #12]
    2646:	60b9      	str	r1, [r7, #8]
    2648:	607a      	str	r2, [r7, #4]
    264a:	603b      	str	r3, [r7, #0]
/home/meander/optee/optee_os/lib/libutee/tee_api_operations.c:869
    264c:	687b      	ldr	r3, [r7, #4]
    264e:	657b      	str	r3, [r7, #84]	; 0x54
/home/meander/optee/optee_os/lib/libutee/tee_api_operations.c:870
    2650:	683b      	ldr	r3, [r7, #0]
    2652:	653b      	str	r3, [r7, #80]	; 0x50
/home/meander/optee/optee_os/lib/libutee/tee_api_operations.c:871
    2654:	6ebb      	ldr	r3, [r7, #104]	; 0x68
    2656:	64fb      	str	r3, [r7, #76]	; 0x4c
/home/meander/optee/optee_os/lib/libutee/tee_api_operations.c:872
    2658:	6efb      	ldr	r3, [r7, #108]	; 0x6c
    265a:	e9d3 3400 	ldrd	r3, r4, [r3]
    265e:	64bb      	str	r3, [r7, #72]	; 0x48
/home/meander/optee/optee_os/lib/libutee/tee_api_operations.c:873
    2660:	f04f 0300 	mov.w	r3, #0
    2664:	647b      	str	r3, [r7, #68]	; 0x44
/home/meander/optee/optee_os/lib/libutee/tee_api_operations.c:879
    2666:	6d7b      	ldr	r3, [r7, #84]	; 0x54
    2668:	2b00      	cmp	r3, #0
    266a:	d108      	bne.n	267e <tee_buffer_update+0x46>
/home/meander/optee/optee_os/lib/libutee/tee_api_operations.c:880
    266c:	6d3b      	ldr	r3, [r7, #80]	; 0x50
    266e:	2b00      	cmp	r3, #0
    2670:	f000 8156 	beq.w	2920 <tee_buffer_update+0x2e8>
/home/meander/optee/optee_os/lib/libutee/tee_api_operations.c:881
    2674:	f04f 0000 	mov.w	r0, #0
    2678:	f008 fd6a 	bl	b150 <TEE_Panic>
/home/meander/optee/optee_os/lib/libutee/tee_api_operations.c:882
    267c:	e150      	b.n	2920 <tee_buffer_update+0x2e8>
/home/meander/optee/optee_os/lib/libutee/tee_api_operations.c:885
    267e:	68fb      	ldr	r3, [r7, #12]
    2680:	f893 3030 	ldrb.w	r3, [r3, #48]	; 0x30
    2684:	2b00      	cmp	r3, #0
    2686:	d008      	beq.n	269a <tee_buffer_update+0x62>
/home/meander/optee/optee_os/lib/libutee/tee_api_operations.c:886
    2688:	68fb      	ldr	r3, [r7, #12]
    268a:	6b5b      	ldr	r3, [r3, #52]	; 0x34
    268c:	ea4f 0343 	mov.w	r3, r3, lsl #1
    2690:	63fb      	str	r3, [r7, #60]	; 0x3c
/home/meander/optee/optee_os/lib/libutee/tee_api_operations.c:887
    2692:	f04f 0301 	mov.w	r3, #1
    2696:	63bb      	str	r3, [r7, #56]	; 0x38
    2698:	e005      	b.n	26a6 <tee_buffer_update+0x6e>
/home/meander/optee/optee_os/lib/libutee/tee_api_operations.c:889
    269a:	68fb      	ldr	r3, [r7, #12]
    269c:	6b5b      	ldr	r3, [r3, #52]	; 0x34
    269e:	63fb      	str	r3, [r7, #60]	; 0x3c
/home/meander/optee/optee_os/lib/libutee/tee_api_operations.c:890
    26a0:	f04f 0300 	mov.w	r3, #0
    26a4:	63bb      	str	r3, [r7, #56]	; 0x38
/home/meander/optee/optee_os/lib/libutee/tee_api_operations.c:893
    26a6:	68fb      	ldr	r3, [r7, #12]
    26a8:	6b9b      	ldr	r3, [r3, #56]	; 0x38
    26aa:	2b00      	cmp	r3, #0
    26ac:	d049      	beq.n	2742 <tee_buffer_update+0x10a>
/home/meander/optee/optee_os/lib/libutee/tee_api_operations.c:895
    26ae:	68fb      	ldr	r3, [r7, #12]
    26b0:	6b9a      	ldr	r2, [r3, #56]	; 0x38
    26b2:	68fb      	ldr	r3, [r7, #12]
    26b4:	6b5b      	ldr	r3, [r3, #52]	; 0x34
    26b6:	429a      	cmp	r2, r3
    26b8:	d20f      	bcs.n	26da <tee_buffer_update+0xa2>
/home/meander/optee/optee_os/lib/libutee/tee_api_operations.c:896
    26ba:	6d3b      	ldr	r3, [r7, #80]	; 0x50
    26bc:	637b      	str	r3, [r7, #52]	; 0x34
    26be:	68fb      	ldr	r3, [r7, #12]
    26c0:	6b5a      	ldr	r2, [r3, #52]	; 0x34
    26c2:	68fb      	ldr	r3, [r7, #12]
    26c4:	6b9b      	ldr	r3, [r3, #56]	; 0x38
    26c6:	eba2 0303 	sub.w	r3, r2, r3
    26ca:	633b      	str	r3, [r7, #48]	; 0x30
    26cc:	6b3a      	ldr	r2, [r7, #48]	; 0x30
    26ce:	6b7b      	ldr	r3, [r7, #52]	; 0x34
    26d0:	4293      	cmp	r3, r2
    26d2:	bf28      	it	cs
    26d4:	4613      	movcs	r3, r2
    26d6:	643b      	str	r3, [r7, #64]	; 0x40
    26d8:	e00d      	b.n	26f6 <tee_buffer_update+0xbe>
/home/meander/optee/optee_os/lib/libutee/tee_api_operations.c:898
    26da:	6d3b      	ldr	r3, [r7, #80]	; 0x50
    26dc:	62fb      	str	r3, [r7, #44]	; 0x2c
    26de:	68fb      	ldr	r3, [r7, #12]
    26e0:	6b9b      	ldr	r3, [r3, #56]	; 0x38
    26e2:	6bfa      	ldr	r2, [r7, #60]	; 0x3c
    26e4:	eba2 0303 	sub.w	r3, r2, r3
    26e8:	62bb      	str	r3, [r7, #40]	; 0x28
    26ea:	6aba      	ldr	r2, [r7, #40]	; 0x28
    26ec:	6afb      	ldr	r3, [r7, #44]	; 0x2c
    26ee:	4293      	cmp	r3, r2
    26f0:	bf28      	it	cs
    26f2:	4613      	movcs	r3, r2
    26f4:	643b      	str	r3, [r7, #64]	; 0x40
/home/meander/optee/optee_os/lib/libutee/tee_api_operations.c:899
    26f6:	68fb      	ldr	r3, [r7, #12]
    26f8:	6ada      	ldr	r2, [r3, #44]	; 0x2c
    26fa:	68fb      	ldr	r3, [r7, #12]
    26fc:	6b9b      	ldr	r3, [r3, #56]	; 0x38
    26fe:	4413      	add	r3, r2
    2700:	6c3a      	ldr	r2, [r7, #64]	; 0x40
    2702:	6d79      	ldr	r1, [r7, #84]	; 0x54
    2704:	4618      	mov	r0, r3
    2706:	f008 fe16 	bl	b336 <memcpy>
/home/meander/optee/optee_os/lib/libutee/tee_api_operations.c:900
    270a:	68fb      	ldr	r3, [r7, #12]
    270c:	6b9a      	ldr	r2, [r3, #56]	; 0x38
    270e:	6c3b      	ldr	r3, [r7, #64]	; 0x40
    2710:	441a      	add	r2, r3
    2712:	68fb      	ldr	r3, [r7, #12]
    2714:	639a      	str	r2, [r3, #56]	; 0x38
/home/meander/optee/optee_os/lib/libutee/tee_api_operations.c:901
    2716:	6d7a      	ldr	r2, [r7, #84]	; 0x54
    2718:	6c3b      	ldr	r3, [r7, #64]	; 0x40
    271a:	4413      	add	r3, r2
    271c:	657b      	str	r3, [r7, #84]	; 0x54
/home/meander/optee/optee_os/lib/libutee/tee_api_operations.c:902
    271e:	6d3a      	ldr	r2, [r7, #80]	; 0x50
    2720:	6c3b      	ldr	r3, [r7, #64]	; 0x40
    2722:	eba2 0303 	sub.w	r3, r2, r3
    2726:	653b      	str	r3, [r7, #80]	; 0x50
/home/meander/optee/optee_os/lib/libutee/tee_api_operations.c:903
    2728:	68fb      	ldr	r3, [r7, #12]
    272a:	6b9b      	ldr	r3, [r3, #56]	; 0x38
    272c:	68fa      	ldr	r2, [r7, #12]
    272e:	6b52      	ldr	r2, [r2, #52]	; 0x34
    2730:	fbb3 f1f2 	udiv	r1, r3, r2
    2734:	fb02 f201 	mul.w	r2, r2, r1
    2738:	eba3 0302 	sub.w	r3, r3, r2
    273c:	2b00      	cmp	r3, #0
    273e:	f040 80f1 	bne.w	2924 <tee_buffer_update+0x2ec>
/home/meander/optee/optee_os/lib/libutee/tee_api_operations.c:908
    2742:	68fb      	ldr	r3, [r7, #12]
    2744:	6b9b      	ldr	r3, [r3, #56]	; 0x38
    2746:	2b00      	cmp	r3, #0
    2748:	d07a      	beq.n	2840 <tee_buffer_update+0x208>
/home/meander/optee/optee_os/lib/libutee/tee_api_operations.c:909 (discriminator 1)
    274a:	68fb      	ldr	r3, [r7, #12]
    274c:	6b9a      	ldr	r2, [r3, #56]	; 0x38
    274e:	6d3b      	ldr	r3, [r7, #80]	; 0x50
    2750:	441a      	add	r2, r3
    2752:	6bf9      	ldr	r1, [r7, #60]	; 0x3c
    2754:	6bbb      	ldr	r3, [r7, #56]	; 0x38
    2756:	440b      	add	r3, r1
/home/meander/optee/optee_os/lib/libutee/tee_api_operations.c:908 (discriminator 1)
    2758:	429a      	cmp	r2, r3
    275a:	d371      	bcc.n	2840 <tee_buffer_update+0x208>
/home/meander/optee/optee_os/lib/libutee/tee_api_operations.c:910
    275c:	68fb      	ldr	r3, [r7, #12]
    275e:	6b9a      	ldr	r2, [r3, #56]	; 0x38
    2760:	6d3b      	ldr	r3, [r7, #80]	; 0x50
    2762:	441a      	add	r2, r3
    2764:	6bfb      	ldr	r3, [r7, #60]	; 0x3c
    2766:	eba2 0203 	sub.w	r2, r2, r3
    276a:	68fb      	ldr	r3, [r7, #12]
    276c:	6b5b      	ldr	r3, [r3, #52]	; 0x34
    276e:	4413      	add	r3, r2
    2770:	f103 32ff 	add.w	r2, r3, #4294967295	; 0xffffffff
    2774:	68fb      	ldr	r3, [r7, #12]
    2776:	6b5b      	ldr	r3, [r3, #52]	; 0x34
    2778:	f1c3 0300 	rsb	r3, r3, #0
    277c:	ea03 0302 	and.w	r3, r3, r2
    2780:	643b      	str	r3, [r7, #64]	; 0x40
/home/meander/optee/optee_os/lib/libutee/tee_api_operations.c:912
    2782:	68fb      	ldr	r3, [r7, #12]
    2784:	6b9b      	ldr	r3, [r3, #56]	; 0x38
    2786:	627b      	str	r3, [r7, #36]	; 0x24
    2788:	6c3b      	ldr	r3, [r7, #64]	; 0x40
    278a:	623b      	str	r3, [r7, #32]
    278c:	6a3a      	ldr	r2, [r7, #32]
    278e:	6a7b      	ldr	r3, [r7, #36]	; 0x24
    2790:	4293      	cmp	r3, r2
    2792:	bf28      	it	cs
    2794:	4613      	movcs	r3, r2
    2796:	643b      	str	r3, [r7, #64]	; 0x40
/home/meander/optee/optee_os/lib/libutee/tee_api_operations.c:913
    2798:	6cbb      	ldr	r3, [r7, #72]	; 0x48
    279a:	f04f 0400 	mov.w	r4, #0
    279e:	e9c7 3404 	strd	r3, r4, [r7, #16]
/home/meander/optee/optee_os/lib/libutee/tee_api_operations.c:914
    27a2:	68fb      	ldr	r3, [r7, #12]
    27a4:	6bd8      	ldr	r0, [r3, #60]	; 0x3c
    27a6:	68fb      	ldr	r3, [r7, #12]
    27a8:	6ad9      	ldr	r1, [r3, #44]	; 0x2c
    27aa:	f107 0310 	add.w	r3, r7, #16
    27ae:	9300      	str	r3, [sp, #0]
    27b0:	68bc      	ldr	r4, [r7, #8]
    27b2:	6cfb      	ldr	r3, [r7, #76]	; 0x4c
    27b4:	6c3a      	ldr	r2, [r7, #64]	; 0x40
    27b6:	47a0      	blx	r4
    27b8:	61f8      	str	r0, [r7, #28]
/home/meander/optee/optee_os/lib/libutee/tee_api_operations.c:915
    27ba:	69fb      	ldr	r3, [r7, #28]
    27bc:	2b00      	cmp	r3, #0
    27be:	d002      	beq.n	27c6 <tee_buffer_update+0x18e>
/home/meander/optee/optee_os/lib/libutee/tee_api_operations.c:916
    27c0:	69f8      	ldr	r0, [r7, #28]
    27c2:	f008 fcc5 	bl	b150 <TEE_Panic>
/home/meander/optee/optee_os/lib/libutee/tee_api_operations.c:917
    27c6:	e9d7 3404 	ldrd	r3, r4, [r7, #16]
    27ca:	461a      	mov	r2, r3
    27cc:	6cfb      	ldr	r3, [r7, #76]	; 0x4c
    27ce:	4413      	add	r3, r2
    27d0:	64fb      	str	r3, [r7, #76]	; 0x4c
/home/meander/optee/optee_os/lib/libutee/tee_api_operations.c:918
    27d2:	e9d7 3404 	ldrd	r3, r4, [r7, #16]
    27d6:	461a      	mov	r2, r3
    27d8:	6cbb      	ldr	r3, [r7, #72]	; 0x48
    27da:	eba3 0302 	sub.w	r3, r3, r2
    27de:	64bb      	str	r3, [r7, #72]	; 0x48
/home/meander/optee/optee_os/lib/libutee/tee_api_operations.c:919
    27e0:	e9d7 3404 	ldrd	r3, r4, [r7, #16]
    27e4:	461a      	mov	r2, r3
    27e6:	6c7b      	ldr	r3, [r7, #68]	; 0x44
    27e8:	4413      	add	r3, r2
    27ea:	647b      	str	r3, [r7, #68]	; 0x44
/home/meander/optee/optee_os/lib/libutee/tee_api_operations.c:920
    27ec:	68fb      	ldr	r3, [r7, #12]
    27ee:	6b9a      	ldr	r2, [r3, #56]	; 0x38
    27f0:	6c3b      	ldr	r3, [r7, #64]	; 0x40
    27f2:	eba2 0203 	sub.w	r2, r2, r3
    27f6:	68fb      	ldr	r3, [r7, #12]
    27f8:	639a      	str	r2, [r3, #56]	; 0x38
/home/meander/optee/optee_os/lib/libutee/tee_api_operations.c:921
    27fa:	68fb      	ldr	r3, [r7, #12]
    27fc:	6b9b      	ldr	r3, [r3, #56]	; 0x38
    27fe:	2b00      	cmp	r3, #0
    2800:	d01e      	beq.n	2840 <tee_buffer_update+0x208>
/home/meander/optee/optee_os/lib/libutee/tee_api_operations.c:925
    2802:	68fb      	ldr	r3, [r7, #12]
    2804:	6ad8      	ldr	r0, [r3, #44]	; 0x2c
    2806:	68fb      	ldr	r3, [r7, #12]
    2808:	6ada      	ldr	r2, [r3, #44]	; 0x2c
    280a:	6c3b      	ldr	r3, [r7, #64]	; 0x40
    280c:	eb02 0103 	add.w	r1, r2, r3
    2810:	6bfa      	ldr	r2, [r7, #60]	; 0x3c
    2812:	6c3b      	ldr	r3, [r7, #64]	; 0x40
    2814:	eba2 0303 	sub.w	r3, r2, r3
    2818:	461a      	mov	r2, r3
    281a:	f008 fd8c 	bl	b336 <memcpy>
/home/meander/optee/optee_os/lib/libutee/tee_api_operations.c:926
    281e:	68fb      	ldr	r3, [r7, #12]
    2820:	6ada      	ldr	r2, [r3, #44]	; 0x2c
    2822:	68fb      	ldr	r3, [r7, #12]
    2824:	6b9b      	ldr	r3, [r3, #56]	; 0x38
    2826:	4413      	add	r3, r2
    2828:	6d3a      	ldr	r2, [r7, #80]	; 0x50
    282a:	6d79      	ldr	r1, [r7, #84]	; 0x54
    282c:	4618      	mov	r0, r3
    282e:	f008 fd82 	bl	b336 <memcpy>
/home/meander/optee/optee_os/lib/libutee/tee_api_operations.c:927
    2832:	68fb      	ldr	r3, [r7, #12]
    2834:	6b9a      	ldr	r2, [r3, #56]	; 0x38
    2836:	6d3b      	ldr	r3, [r7, #80]	; 0x50
    2838:	441a      	add	r2, r3
    283a:	68fb      	ldr	r3, [r7, #12]
    283c:	639a      	str	r2, [r3, #56]	; 0x38
/home/meander/optee/optee_os/lib/libutee/tee_api_operations.c:928
    283e:	e072      	b.n	2926 <tee_buffer_update+0x2ee>
/home/meander/optee/optee_os/lib/libutee/tee_api_operations.c:932
    2840:	6bfa      	ldr	r2, [r7, #60]	; 0x3c
